Modules list:
-------------
main.o:
    CODE              Offs=000000  Size=0000EB  Align=00001  Fill=0000
    RODATA            Offs=000000  Size=000000  Align=00001  Fill=0000
    BSS               Offs=000000  Size=000000  Align=00001  Fill=0000
    DATA              Offs=000000  Size=000002  Align=00001  Fill=0000
    ZEROPAGE          Offs=000000  Size=000000  Align=00001  Fill=0000
    NULL              Offs=000000  Size=000000  Align=00001  Fill=0000
new_level.o:
    CODE              Offs=0000EB  Size=000000  Align=00001  Fill=0000
    RODATA            Offs=000000  Size=000000  Align=00001  Fill=0000
    BSS               Offs=000000  Size=000000  Align=00001  Fill=0000
    DATA              Offs=000002  Size=000000  Align=00001  Fill=0000
    ZEROPAGE          Offs=000000  Size=000000  Align=00001  Fill=0000
    NULL              Offs=000000  Size=000000  Align=00001  Fill=0000
    LC                Offs=000000  Size=00037F  Align=00001  Fill=0000
rooms.o:
    CODE              Offs=0000EB  Size=000000  Align=00001  Fill=0000
    RODATA            Offs=000000  Size=000000  Align=00001  Fill=0000
    BSS               Offs=000000  Size=000000  Align=00001  Fill=0000
    DATA              Offs=000002  Size=000000  Align=00001  Fill=0000
    ZEROPAGE          Offs=000000  Size=000000  Align=00001  Fill=0000
    NULL              Offs=000000  Size=000000  Align=00001  Fill=0000
    LC                Offs=00037F  Size=0006BE  Align=00001  Fill=0000
random.o:
    CODE              Offs=0000EB  Size=000034  Align=00001  Fill=0000
    RODATA            Offs=000000  Size=000000  Align=00001  Fill=0000
    BSS               Offs=000000  Size=000000  Align=00001  Fill=0000
    DATA              Offs=000002  Size=000000  Align=00001  Fill=0000
    ZEROPAGE          Offs=000000  Size=000000  Align=00001  Fill=0000
    NULL              Offs=000000  Size=000000  Align=00001  Fill=0000
curses.o:
    CODE              Offs=00011F  Size=000000  Align=00001  Fill=0000
    RODATA            Offs=000000  Size=00006E  Align=00001  Fill=0000
    BSS               Offs=000000  Size=000051  Align=00001  Fill=0000
    DATA              Offs=000002  Size=000000  Align=00001  Fill=0000
    ZEROPAGE          Offs=000000  Size=000000  Align=00001  Fill=0000
    NULL              Offs=000000  Size=000000  Align=00001  Fill=0000
    LC                Offs=000A3D  Size=00039E  Align=00001  Fill=0000
rogue.o:
    CODE              Offs=00011F  Size=000000  Align=00001  Fill=0000
    RODATA            Offs=00006E  Size=000000  Align=00001  Fill=0000
    BSS               Offs=000051  Size=002689  Align=00001  Fill=0000
    DATA              Offs=000002  Size=000003  Align=00001  Fill=0000
    ZEROPAGE          Offs=000000  Size=000000  Align=00001  Fill=0000
    NULL              Offs=000000  Size=000000  Align=00001  Fill=0000
move.o:
    CODE              Offs=00011F  Size=000860  Align=00001  Fill=0000
    RODATA            Offs=00006E  Size=000038  Align=00001  Fill=0000
    BSS               Offs=0026DA  Size=000002  Align=00001  Fill=0000
    DATA              Offs=000005  Size=000000  Align=00001  Fill=0000
    ZEROPAGE          Offs=000000  Size=000000  Align=00001  Fill=0000
    NULL              Offs=000000  Size=000000  Align=00001  Fill=0000
passages.o:
    CODE              Offs=00097F  Size=000000  Align=00001  Fill=0000
    RODATA            Offs=0000A6  Size=000000  Align=00001  Fill=0000
    BSS               Offs=0026DC  Size=000000  Align=00001  Fill=0000
    DATA              Offs=000005  Size=0000AB  Align=00001  Fill=0000
    ZEROPAGE          Offs=000000  Size=000000  Align=00001  Fill=0000
    NULL              Offs=000000  Size=000000  Align=00001  Fill=0000
    LC                Offs=000DDB  Size=000AFF  Align=00001  Fill=0000
io.o:
    CODE              Offs=00097F  Size=000258  Align=00001  Fill=0000
    RODATA            Offs=0000A6  Size=00006D  Align=00001  Fill=0000
    BSS               Offs=0026DC  Size=000051  Align=00001  Fill=0000
    DATA              Offs=0000B0  Size=000002  Align=00001  Fill=0000
    ZEROPAGE          Offs=000000  Size=000000  Align=00001  Fill=0000
    NULL              Offs=000000  Size=000000  Align=00001  Fill=0000
chase.o:
    CODE              Offs=000BD7  Size=000107  Align=00001  Fill=0000
    RODATA            Offs=000113  Size=000000  Align=00001  Fill=0000
    BSS               Offs=00272D  Size=000000  Align=00001  Fill=0000
    DATA              Offs=0000B2  Size=000000  Align=00001  Fill=0000
    ZEROPAGE          Offs=000000  Size=000000  Align=00001  Fill=0000
    NULL              Offs=000000  Size=000000  Align=00001  Fill=0000
init.o:
    CODE              Offs=000CDE  Size=000000  Align=00001  Fill=0000
    RODATA            Offs=000113  Size=000000  Align=00001  Fill=0000
    BSS               Offs=00272D  Size=000000  Align=00001  Fill=0000
    DATA              Offs=0000B2  Size=000000  Align=00001  Fill=0000
    ZEROPAGE          Offs=000000  Size=000000  Align=00001  Fill=0000
    NULL              Offs=000000  Size=000000  Align=00001  Fill=0000
command.o:
    CODE              Offs=000CDE  Size=00030E  Align=00001  Fill=0000
    RODATA            Offs=000113  Size=000064  Align=00001  Fill=0000
    BSS               Offs=00272D  Size=000002  Align=00001  Fill=0000
    DATA              Offs=0000B2  Size=000001  Align=00001  Fill=0000
    ZEROPAGE          Offs=000000  Size=000000  Align=00001  Fill=0000
    NULL              Offs=000000  Size=000000  Align=00001  Fill=0000
misc.o:
    CODE              Offs=000FEC  Size=000000  Align=00001  Fill=0000
    RODATA            Offs=000177  Size=000000  Align=00001  Fill=0000
    BSS               Offs=00272F  Size=000002  Align=00001  Fill=0000
    DATA              Offs=0000B3  Size=000000  Align=00001  Fill=0000
    ZEROPAGE          Offs=000000  Size=000000  Align=00001  Fill=0000
    NULL              Offs=000000  Size=000000  Align=00001  Fill=0000
    LC                Offs=0018DA  Size=0008E0  Align=00001  Fill=0000
/usr/local/Cellar/cc65/2.18/share/cc65/lib/apple2enh.lib(_cursor.o):
    CODE              Offs=000FEC  Size=000000  Align=00001  Fill=0000
    RODATA            Offs=000177  Size=000000  Align=00001  Fill=0000
    BSS               Offs=002731  Size=000001  Align=00001  Fill=0000
    DATA              Offs=0000B3  Size=000000  Align=00001  Fill=0000
    ZEROPAGE          Offs=000000  Size=000000  Align=00001  Fill=0000
    NULL              Offs=000000  Size=000000  Align=00001  Fill=0000
/usr/local/Cellar/cc65/2.18/share/cc65/lib/apple2enh.lib(_directerrno.o):
    CODE              Offs=000FEC  Size=000009  Align=00001  Fill=0000
    RODATA            Offs=000177  Size=000000  Align=00001  Fill=0000
    BSS               Offs=002732  Size=000000  Align=00001  Fill=0000
    DATA              Offs=0000B3  Size=000000  Align=00001  Fill=0000
    ZEROPAGE          Offs=000000  Size=000000  Align=00001  Fill=0000
    NULL              Offs=000000  Size=000000  Align=00001  Fill=0000
/usr/local/Cellar/cc65/2.18/share/cc65/lib/apple2enh.lib(_hextab.o):
    CODE              Offs=000FF5  Size=000000  Align=00001  Fill=0000
    RODATA            Offs=000177  Size=000010  Align=00001  Fill=0000
    BSS               Offs=002732  Size=000000  Align=00001  Fill=0000
    DATA              Offs=0000B3  Size=000000  Align=00001  Fill=0000
    ZEROPAGE          Offs=000000  Size=000000  Align=00001  Fill=0000
    NULL              Offs=000000  Size=000000  Align=00001  Fill=0000
/usr/local/Cellar/cc65/2.18/share/cc65/lib/apple2enh.lib(_longminstr.o):
    CODE              Offs=000FF5  Size=000000  Align=00001  Fill=0000
    RODATA            Offs=000187  Size=00000C  Align=00001  Fill=0000
    BSS               Offs=002732  Size=000000  Align=00001  Fill=0000
    DATA              Offs=0000B3  Size=000000  Align=00001  Fill=0000
    ZEROPAGE          Offs=000000  Size=000000  Align=00001  Fill=0000
    NULL              Offs=000000  Size=000000  Align=00001  Fill=0000
/usr/local/Cellar/cc65/2.18/share/cc65/lib/apple2enh.lib(_oserror.o):
    CODE              Offs=000FF5  Size=000000  Align=00001  Fill=0000
    RODATA            Offs=000193  Size=000000  Align=00001  Fill=0000
    BSS               Offs=002732  Size=000001  Align=00001  Fill=0000
    DATA              Offs=0000B3  Size=000000  Align=00001  Fill=0000
    ZEROPAGE          Offs=000000  Size=000000  Align=00001  Fill=0000
    NULL              Offs=000000  Size=000000  Align=00001  Fill=0000
/usr/local/Cellar/cc65/2.18/share/cc65/lib/apple2enh.lib(_printf.o):
    CODE              Offs=000FF5  Size=0003A5  Align=00001  Fill=0000
    RODATA            Offs=000193  Size=000000  Align=00001  Fill=0000
    BSS               Offs=002733  Size=00002B  Align=00001  Fill=0000
    DATA              Offs=0000B3  Size=000003  Align=00001  Fill=0000
    ZEROPAGE          Offs=000000  Size=000000  Align=00001  Fill=0000
    NULL              Offs=000000  Size=000000  Align=00001  Fill=0000
/usr/local/Cellar/cc65/2.18/share/cc65/lib/apple2enh.lib(_seterrno.o):
    CODE              Offs=00139A  Size=000009  Align=00001  Fill=0000
    RODATA            Offs=000193  Size=000000  Align=00001  Fill=0000
    BSS               Offs=00275E  Size=000000  Align=00001  Fill=0000
    DATA              Offs=0000B6  Size=000000  Align=00001  Fill=0000
    ZEROPAGE          Offs=000000  Size=000000  Align=00001  Fill=0000
    NULL              Offs=000000  Size=000000  Align=00001  Fill=0000
/usr/local/Cellar/cc65/2.18/share/cc65/lib/apple2enh.lib(add.o):
    CODE              Offs=0013A3  Size=000018  Align=00001  Fill=0000
    RODATA            Offs=000193  Size=000000  Align=00001  Fill=0000
    BSS               Offs=00275E  Size=000000  Align=00001  Fill=0000
    DATA              Offs=0000B6  Size=000000  Align=00001  Fill=0000
    ZEROPAGE          Offs=000000  Size=000000  Align=00001  Fill=0000
    NULL              Offs=000000  Size=000000  Align=00001  Fill=0000
/usr/local/Cellar/cc65/2.18/share/cc65/lib/apple2enh.lib(addeqsp.o):
    CODE              Offs=0013BB  Size=000011  Align=00001  Fill=0000
    RODATA            Offs=000193  Size=000000  Align=00001  Fill=0000
    BSS               Offs=00275E  Size=000000  Align=00001  Fill=0000
    DATA              Offs=0000B6  Size=000000  Align=00001  Fill=0000
    ZEROPAGE          Offs=000000  Size=000000  Align=00001  Fill=0000
    NULL              Offs=000000  Size=000000  Align=00001  Fill=0000
/usr/local/Cellar/cc65/2.18/share/cc65/lib/apple2enh.lib(addysp.o):
    CODE              Offs=0013CC  Size=00000E  Align=00001  Fill=0000
    RODATA            Offs=000193  Size=000000  Align=00001  Fill=0000
    BSS               Offs=00275E  Size=000000  Align=00001  Fill=0000
    DATA              Offs=0000B6  Size=000000  Align=00001  Fill=0000
    ZEROPAGE          Offs=000000  Size=000000  Align=00001  Fill=0000
    NULL              Offs=000000  Size=000000  Align=00001  Fill=0000
/usr/local/Cellar/cc65/2.18/share/cc65/lib/apple2enh.lib(aslax1.o):
    CODE              Offs=0013DA  Size=000008  Align=00001  Fill=0000
    RODATA            Offs=000193  Size=000000  Align=00001  Fill=0000
    BSS               Offs=00275E  Size=000000  Align=00001  Fill=0000
    DATA              Offs=0000B6  Size=000000  Align=00001  Fill=0000
    ZEROPAGE          Offs=000000  Size=000000  Align=00001  Fill=0000
    NULL              Offs=000000  Size=000000  Align=00001  Fill=0000
/usr/local/Cellar/cc65/2.18/share/cc65/lib/apple2enh.lib(axlong.o):
    CODE              Offs=0013E2  Size=00000D  Align=00001  Fill=0000
    RODATA            Offs=000193  Size=000000  Align=00001  Fill=0000
    BSS               Offs=00275E  Size=000000  Align=00001  Fill=0000
    DATA              Offs=0000B6  Size=000000  Align=00001  Fill=0000
    ZEROPAGE          Offs=000000  Size=000000  Align=00001  Fill=0000
    NULL              Offs=000000  Size=000000  Align=00001  Fill=0000
/usr/local/Cellar/cc65/2.18/share/cc65/lib/apple2enh.lib(bneg.o):
    CODE              Offs=0013EF  Size=00000E  Align=00001  Fill=0000
    RODATA            Offs=000193  Size=000000  Align=00001  Fill=0000
    BSS               Offs=00275E  Size=000000  Align=00001  Fill=0000
    DATA              Offs=0000B6  Size=000000  Align=00001  Fill=0000
    ZEROPAGE          Offs=000000  Size=000000  Align=00001  Fill=0000
    NULL              Offs=000000  Size=000000  Align=00001  Fill=0000
/usr/local/Cellar/cc65/2.18/share/cc65/lib/apple2enh.lib(callmain.o):
    CODE              Offs=0013FD  Size=000017  Align=00001  Fill=0000
    RODATA            Offs=000193  Size=000000  Align=00001  Fill=0000
    BSS               Offs=00275E  Size=000000  Align=00001  Fill=0000
    DATA              Offs=0000B6  Size=000004  Align=00001  Fill=0000
    ZEROPAGE          Offs=000000  Size=000000  Align=00001  Fill=0000
    NULL              Offs=000000  Size=000000  Align=00001  Fill=0000
/usr/local/Cellar/cc65/2.18/share/cc65/lib/apple2enh.lib(cclear.o):
    CODE              Offs=001414  Size=00000A  Align=00001  Fill=0000
    RODATA            Offs=000193  Size=000000  Align=00001  Fill=0000
    BSS               Offs=00275E  Size=000000  Align=00001  Fill=0000
    DATA              Offs=0000BA  Size=000000  Align=00001  Fill=0000
    ZEROPAGE          Offs=000000  Size=000000  Align=00001  Fill=0000
    NULL              Offs=000000  Size=000000  Align=00001  Fill=0000
/usr/local/Cellar/cc65/2.18/share/cc65/lib/apple2enh.lib(cgetc.o):
    CODE              Offs=00141E  Size=00002D  Align=00001  Fill=0000
    RODATA            Offs=000193  Size=000000  Align=00001  Fill=0000
    BSS               Offs=00275E  Size=000000  Align=00001  Fill=0000
    DATA              Offs=0000BA  Size=000000  Align=00001  Fill=0000
    ZEROPAGE          Offs=000000  Size=000000  Align=00001  Fill=0000
    NULL              Offs=000000  Size=000000  Align=00001  Fill=0000
/usr/local/Cellar/cc65/2.18/share/cc65/lib/apple2enh.lib(chline.o):
    CODE              Offs=00144B  Size=000019  Align=00001  Fill=0000
    RODATA            Offs=000193  Size=000000  Align=00001  Fill=0000
    BSS               Offs=00275E  Size=000000  Align=00001  Fill=0000
    DATA              Offs=0000BA  Size=000000  Align=00001  Fill=0000
    ZEROPAGE          Offs=000000  Size=000000  Align=00001  Fill=0000
    NULL              Offs=000000  Size=000000  Align=00001  Fill=0000
/usr/local/Cellar/cc65/2.18/share/cc65/lib/apple2enh.lib(clrscr.o):
    CODE              Offs=001464  Size=000000  Align=00001  Fill=0000
    RODATA            Offs=000193  Size=000000  Align=00001  Fill=0000
    BSS               Offs=00275E  Size=000000  Align=00001  Fill=0000
    DATA              Offs=0000BA  Size=000000  Align=00001  Fill=0000
    ZEROPAGE          Offs=000000  Size=000000  Align=00001  Fill=0000
    NULL              Offs=000000  Size=000000  Align=00001  Fill=0000
/usr/local/Cellar/cc65/2.18/share/cc65/lib/apple2enh.lib(condes.o):
    CODE              Offs=001464  Size=00000C  Align=00001  Fill=0000
    RODATA            Offs=000193  Size=000000  Align=00001  Fill=0000
    BSS               Offs=00275E  Size=000000  Align=00001  Fill=0000
    DATA              Offs=0000BA  Size=000025  Align=00001  Fill=0000
    ZEROPAGE          Offs=000000  Size=000000  Align=00001  Fill=0000
    NULL              Offs=000000  Size=000000  Align=00001  Fill=0000
    ONCE              Offs=000000  Size=00000C  Align=00001  Fill=0000
/usr/local/Cellar/cc65/2.18/share/cc65/lib/apple2enh.lib(cout.o):
    CODE              Offs=001470  Size=000000  Align=00001  Fill=0000
    RODATA            Offs=000193  Size=000000  Align=00001  Fill=0000
    BSS               Offs=00275E  Size=000000  Align=00001  Fill=0000
    DATA              Offs=0000DF  Size=000000  Align=00001  Fill=0000
    ZEROPAGE          Offs=000000  Size=000000  Align=00001  Fill=0000
    NULL              Offs=000000  Size=000000  Align=00001  Fill=0000
    LOWCODE           Offs=000000  Size=00000A  Align=00001  Fill=0000
/usr/local/Cellar/cc65/2.18/share/cc65/lib/apple2enh.lib(cputc.o):
    CODE              Offs=001470  Size=00005B  Align=00001  Fill=0000
    RODATA            Offs=000193  Size=000000  Align=00001  Fill=0000
    BSS               Offs=00275E  Size=000000  Align=00001  Fill=0000
    DATA              Offs=0000DF  Size=000000  Align=00001  Fill=0000
    ZEROPAGE          Offs=000000  Size=000000  Align=00001  Fill=0000
    NULL              Offs=000000  Size=000000  Align=00001  Fill=0000
    ONCE              Offs=00000C  Size=000007  Align=00001  Fill=0000
/usr/local/Cellar/cc65/2.18/share/cc65/lib/apple2enh.lib(cputs.o):
    CODE              Offs=0014CB  Size=000023  Align=00001  Fill=0000
    RODATA            Offs=000193  Size=000000  Align=00001  Fill=0000
    BSS               Offs=00275E  Size=000000  Align=00001  Fill=0000
    DATA              Offs=0000DF  Size=000000  Align=00001  Fill=0000
    ZEROPAGE          Offs=000000  Size=000000  Align=00001  Fill=0000
    NULL              Offs=000000  Size=000000  Align=00001  Fill=0000
/usr/local/Cellar/cc65/2.18/share/cc65/lib/apple2enh.lib(crt0.o):
    CODE              Offs=0014EE  Size=000012  Align=00001  Fill=0000
    RODATA            Offs=000193  Size=000007  Align=00001  Fill=0000
    BSS               Offs=00275E  Size=000000  Align=00001  Fill=0000
    DATA              Offs=0000DF  Size=000003  Align=00001  Fill=0000
    ZEROPAGE          Offs=000000  Size=000000  Align=00001  Fill=0000
    NULL              Offs=000000  Size=000000  Align=00001  Fill=0000
    STARTUP           Offs=000000  Size=000034  Align=00001  Fill=0000
    ONCE              Offs=000013  Size=00006A  Align=00001  Fill=0000
    INIT              Offs=000000  Size=00001D  Align=00001  Fill=0000
/usr/local/Cellar/cc65/2.18/share/cc65/lib/apple2enh.lib(ctype.o):
    CODE              Offs=001500  Size=000000  Align=00001  Fill=0000
    RODATA            Offs=00019A  Size=000100  Align=00001  Fill=0000
    BSS               Offs=00275E  Size=000000  Align=00001  Fill=0000
    DATA              Offs=0000E2  Size=000000  Align=00001  Fill=0000
    ZEROPAGE          Offs=000000  Size=000000  Align=00001  Fill=0000
    NULL              Offs=000000  Size=000000  Align=00001  Fill=0000
/usr/local/Cellar/cc65/2.18/share/cc65/lib/apple2enh.lib(decax1.o):
    CODE              Offs=001500  Size=000007  Align=00001  Fill=0000
    RODATA            Offs=00029A  Size=000000  Align=00001  Fill=0000
    BSS               Offs=00275E  Size=000000  Align=00001  Fill=0000
    DATA              Offs=0000E2  Size=000000  Align=00001  Fill=0000
    ZEROPAGE          Offs=000000  Size=000000  Align=00001  Fill=0000
    NULL              Offs=000000  Size=000000  Align=00001  Fill=0000
/usr/local/Cellar/cc65/2.18/share/cc65/lib/apple2enh.lib(decax2.o):
    CODE              Offs=001507  Size=000007  Align=00001  Fill=0000
    RODATA            Offs=00029A  Size=000000  Align=00001  Fill=0000
    BSS               Offs=00275E  Size=000000  Align=00001  Fill=0000
    DATA              Offs=0000E2  Size=000000  Align=00001  Fill=0000
    ZEROPAGE          Offs=000000  Size=000000  Align=00001  Fill=0000
    NULL              Offs=000000  Size=000000  Align=00001  Fill=0000
/usr/local/Cellar/cc65/2.18/share/cc65/lib/apple2enh.lib(decax4.o):
    CODE              Offs=00150E  Size=000007  Align=00001  Fill=0000
    RODATA            Offs=00029A  Size=000000  Align=00001  Fill=0000
    BSS               Offs=00275E  Size=000000  Align=00001  Fill=0000
    DATA              Offs=0000E2  Size=000000  Align=00001  Fill=0000
    ZEROPAGE          Offs=000000  Size=000000  Align=00001  Fill=0000
    NULL              Offs=000000  Size=000000  Align=00001  Fill=0000
/usr/local/Cellar/cc65/2.18/share/cc65/lib/apple2enh.lib(decsp1.o):
    CODE              Offs=001515  Size=000009  Align=00001  Fill=0000
    RODATA            Offs=00029A  Size=000000  Align=00001  Fill=0000
    BSS               Offs=00275E  Size=000000  Align=00001  Fill=0000
    DATA              Offs=0000E2  Size=000000  Align=00001  Fill=0000
    ZEROPAGE          Offs=000000  Size=000000  Align=00001  Fill=0000
    NULL              Offs=000000  Size=000000  Align=00001  Fill=0000
/usr/local/Cellar/cc65/2.18/share/cc65/lib/apple2enh.lib(decsp2.o):
    CODE              Offs=00151E  Size=00000D  Align=00001  Fill=0000
    RODATA            Offs=00029A  Size=000000  Align=00001  Fill=0000
    BSS               Offs=00275E  Size=000000  Align=00001  Fill=0000
    DATA              Offs=0000E2  Size=000000  Align=00001  Fill=0000
    ZEROPAGE          Offs=000000  Size=000000  Align=00001  Fill=0000
    NULL              Offs=000000  Size=000000  Align=00001  Fill=0000
/usr/local/Cellar/cc65/2.18/share/cc65/lib/apple2enh.lib(decsp4.o):
    CODE              Offs=00152B  Size=00000D  Align=00001  Fill=0000
    RODATA            Offs=00029A  Size=000000  Align=00001  Fill=0000
    BSS               Offs=00275E  Size=000000  Align=00001  Fill=0000
    DATA              Offs=0000E2  Size=000000  Align=00001  Fill=0000
    ZEROPAGE          Offs=000000  Size=000000  Align=00001  Fill=0000
    NULL              Offs=000000  Size=000000  Align=00001  Fill=0000
/usr/local/Cellar/cc65/2.18/share/cc65/lib/apple2enh.lib(decsp5.o):
    CODE              Offs=001538  Size=00000D  Align=00001  Fill=0000
    RODATA            Offs=00029A  Size=000000  Align=00001  Fill=0000
    BSS               Offs=00275E  Size=000000  Align=00001  Fill=0000
    DATA              Offs=0000E2  Size=000000  Align=00001  Fill=0000
    ZEROPAGE          Offs=000000  Size=000000  Align=00001  Fill=0000
    NULL              Offs=000000  Size=000000  Align=00001  Fill=0000
/usr/local/Cellar/cc65/2.18/share/cc65/lib/apple2enh.lib(decsp6.o):
    CODE              Offs=001545  Size=00000D  Align=00001  Fill=0000
    RODATA            Offs=00029A  Size=000000  Align=00001  Fill=0000
    BSS               Offs=00275E  Size=000000  Align=00001  Fill=0000
    DATA              Offs=0000E2  Size=000000  Align=00001  Fill=0000
    ZEROPAGE          Offs=000000  Size=000000  Align=00001  Fill=0000
    NULL              Offs=000000  Size=000000  Align=00001  Fill=0000
/usr/local/Cellar/cc65/2.18/share/cc65/lib/apple2enh.lib(div.o):
    CODE              Offs=001552  Size=000015  Align=00001  Fill=0000
    RODATA            Offs=00029A  Size=000000  Align=00001  Fill=0000
    BSS               Offs=00275E  Size=000000  Align=00001  Fill=0000
    DATA              Offs=0000E2  Size=000000  Align=00001  Fill=0000
    ZEROPAGE          Offs=000000  Size=000000  Align=00001  Fill=0000
    NULL              Offs=000000  Size=000000  Align=00001  Fill=0000
/usr/local/Cellar/cc65/2.18/share/cc65/lib/apple2enh.lib(enter.o):
    CODE              Offs=001567  Size=00000E  Align=00001  Fill=0000
    RODATA            Offs=00029A  Size=000000  Align=00001  Fill=0000
    BSS               Offs=00275E  Size=000000  Align=00001  Fill=0000
    DATA              Offs=0000E2  Size=000000  Align=00001  Fill=0000
    ZEROPAGE          Offs=000000  Size=000000  Align=00001  Fill=0000
    NULL              Offs=000000  Size=000000  Align=00001  Fill=0000
/usr/local/Cellar/cc65/2.18/share/cc65/lib/apple2enh.lib(eq.o):
    CODE              Offs=001575  Size=00000A  Align=00001  Fill=0000
    RODATA            Offs=00029A  Size=000000  Align=00001  Fill=0000
    BSS               Offs=00275E  Size=000000  Align=00001  Fill=0000
    DATA              Offs=0000E2  Size=000000  Align=00001  Fill=0000
    ZEROPAGE          Offs=000000  Size=000000  Align=00001  Fill=0000
    NULL              Offs=000000  Size=000000  Align=00001  Fill=0000
/usr/local/Cellar/cc65/2.18/share/cc65/lib/apple2enh.lib(errno.o):
    CODE              Offs=00157F  Size=000000  Align=00001  Fill=0000
    RODATA            Offs=00029A  Size=000000  Align=00001  Fill=0000
    BSS               Offs=00275E  Size=000002  Align=00001  Fill=0000
    DATA              Offs=0000E2  Size=000000  Align=00001  Fill=0000
    ZEROPAGE          Offs=000000  Size=000000  Align=00001  Fill=0000
    NULL              Offs=000000  Size=000000  Align=00001  Fill=0000
/usr/local/Cellar/cc65/2.18/share/cc65/lib/apple2enh.lib(exehdr.o):
    CODE              Offs=00157F  Size=000000  Align=00001  Fill=0000
    RODATA            Offs=00029A  Size=000000  Align=00001  Fill=0000
    BSS               Offs=002760  Size=000000  Align=00001  Fill=0000
    DATA              Offs=0000E2  Size=000000  Align=00001  Fill=0000
    ZEROPAGE          Offs=000000  Size=000000  Align=00001  Fill=0000
    NULL              Offs=000000  Size=000000  Align=00001  Fill=0000
    EXEHDR            Offs=000000  Size=00003A  Align=00001  Fill=0000
/usr/local/Cellar/cc65/2.18/share/cc65/lib/apple2enh.lib(gotoxy.o):
    CODE              Offs=00157F  Size=000011  Align=00001  Fill=0000
    RODATA            Offs=00029A  Size=000000  Align=00001  Fill=0000
    BSS               Offs=002760  Size=000000  Align=00001  Fill=0000
    DATA              Offs=0000E2  Size=000000  Align=00001  Fill=0000
    ZEROPAGE          Offs=000000  Size=000000  Align=00001  Fill=0000
    NULL              Offs=000000  Size=000000  Align=00001  Fill=0000
/usr/local/Cellar/cc65/2.18/share/cc65/lib/apple2enh.lib(home.o):
    CODE              Offs=001590  Size=000000  Align=00001  Fill=0000
    RODATA            Offs=00029A  Size=000000  Align=00001  Fill=0000
    BSS               Offs=002760  Size=000000  Align=00001  Fill=0000
    DATA              Offs=0000E2  Size=000000  Align=00001  Fill=0000
    ZEROPAGE          Offs=000000  Size=000000  Align=00001  Fill=0000
    NULL              Offs=000000  Size=000000  Align=00001  Fill=0000
    LOWCODE           Offs=00000A  Size=00000A  Align=00001  Fill=0000
/usr/local/Cellar/cc65/2.18/share/cc65/lib/apple2enh.lib(icmp.o):
    CODE              Offs=001590  Size=00002E  Align=00001  Fill=0000
    RODATA            Offs=00029A  Size=000000  Align=00001  Fill=0000
    BSS               Offs=002760  Size=000000  Align=00001  Fill=0000
    DATA              Offs=0000E2  Size=000000  Align=00001  Fill=0000
    ZEROPAGE          Offs=000000  Size=000000  Align=00001  Fill=0000
    NULL              Offs=000000  Size=000000  Align=00001  Fill=0000
/usr/local/Cellar/cc65/2.18/share/cc65/lib/apple2enh.lib(incax2.o):
    CODE              Offs=0015BE  Size=000007  Align=00001  Fill=0000
    RODATA            Offs=00029A  Size=000000  Align=00001  Fill=0000
    BSS               Offs=002760  Size=000000  Align=00001  Fill=0000
    DATA              Offs=0000E2  Size=000000  Align=00001  Fill=0000
    ZEROPAGE          Offs=000000  Size=000000  Align=00001  Fill=0000
    NULL              Offs=000000  Size=000000  Align=00001  Fill=0000
/usr/local/Cellar/cc65/2.18/share/cc65/lib/apple2enh.lib(incax3.o):
    CODE              Offs=0015C5  Size=000005  Align=00001  Fill=0000
    RODATA            Offs=00029A  Size=000000  Align=00001  Fill=0000
    BSS               Offs=002760  Size=000000  Align=00001  Fill=0000
    DATA              Offs=0000E2  Size=000000  Align=00001  Fill=0000
    ZEROPAGE          Offs=000000  Size=000000  Align=00001  Fill=0000
    NULL              Offs=000000  Size=000000  Align=00001  Fill=0000
/usr/local/Cellar/cc65/2.18/share/cc65/lib/apple2enh.lib(incax5.o):
    CODE              Offs=0015CA  Size=000005  Align=00001  Fill=0000
    RODATA            Offs=00029A  Size=000000  Align=00001  Fill=0000
    BSS               Offs=002760  Size=000000  Align=00001  Fill=0000
    DATA              Offs=0000E2  Size=000000  Align=00001  Fill=0000
    ZEROPAGE          Offs=000000  Size=000000  Align=00001  Fill=0000
    NULL              Offs=000000  Size=000000  Align=00001  Fill=0000
/usr/local/Cellar/cc65/2.18/share/cc65/lib/apple2enh.lib(incaxy.o):
    CODE              Offs=0015CF  Size=00000B  Align=00001  Fill=0000
    RODATA            Offs=00029A  Size=000000  Align=00001  Fill=0000
    BSS               Offs=002760  Size=000000  Align=00001  Fill=0000
    DATA              Offs=0000E2  Size=000000  Align=00001  Fill=0000
    ZEROPAGE          Offs=000000  Size=000000  Align=00001  Fill=0000
    NULL              Offs=000000  Size=000000  Align=00001  Fill=0000
/usr/local/Cellar/cc65/2.18/share/cc65/lib/apple2enh.lib(incsp1.o):
    CODE              Offs=0015DA  Size=000007  Align=00001  Fill=0000
    RODATA            Offs=00029A  Size=000000  Align=00001  Fill=0000
    BSS               Offs=002760  Size=000000  Align=00001  Fill=0000
    DATA              Offs=0000E2  Size=000000  Align=00001  Fill=0000
    ZEROPAGE          Offs=000000  Size=000000  Align=00001  Fill=0000
    NULL              Offs=000000  Size=000000  Align=00001  Fill=0000
/usr/local/Cellar/cc65/2.18/share/cc65/lib/apple2enh.lib(incsp2.o):
    CODE              Offs=0015E1  Size=000015  Align=00001  Fill=0000
    RODATA            Offs=00029A  Size=000000  Align=00001  Fill=0000
    BSS               Offs=002760  Size=000000  Align=00001  Fill=0000
    DATA              Offs=0000E2  Size=000000  Align=00001  Fill=0000
    ZEROPAGE          Offs=000000  Size=000000  Align=00001  Fill=0000
    NULL              Offs=000000  Size=000000  Align=00001  Fill=0000
/usr/local/Cellar/cc65/2.18/share/cc65/lib/apple2enh.lib(incsp3.o):
    CODE              Offs=0015F6  Size=000005  Align=00001  Fill=0000
    RODATA            Offs=00029A  Size=000000  Align=00001  Fill=0000
    BSS               Offs=002760  Size=000000  Align=00001  Fill=0000
    DATA              Offs=0000E2  Size=000000  Align=00001  Fill=0000
    ZEROPAGE          Offs=000000  Size=000000  Align=00001  Fill=0000
    NULL              Offs=000000  Size=000000  Align=00001  Fill=0000
/usr/local/Cellar/cc65/2.18/share/cc65/lib/apple2enh.lib(incsp4.o):
    CODE              Offs=0015FB  Size=000005  Align=00001  Fill=0000
    RODATA            Offs=00029A  Size=000000  Align=00001  Fill=0000
    BSS               Offs=002760  Size=000000  Align=00001  Fill=0000
    DATA              Offs=0000E2  Size=000000  Align=00001  Fill=0000
    ZEROPAGE          Offs=000000  Size=000000  Align=00001  Fill=0000
    NULL              Offs=000000  Size=000000  Align=00001  Fill=0000
/usr/local/Cellar/cc65/2.18/share/cc65/lib/apple2enh.lib(incsp5.o):
    CODE              Offs=001600  Size=000005  Align=00001  Fill=0000
    RODATA            Offs=00029A  Size=000000  Align=00001  Fill=0000
    BSS               Offs=002760  Size=000000  Align=00001  Fill=0000
    DATA              Offs=0000E2  Size=000000  Align=00001  Fill=0000
    ZEROPAGE          Offs=000000  Size=000000  Align=00001  Fill=0000
    NULL              Offs=000000  Size=000000  Align=00001  Fill=0000
/usr/local/Cellar/cc65/2.18/share/cc65/lib/apple2enh.lib(incsp6.o):
    CODE              Offs=001605  Size=000005  Align=00001  Fill=0000
    RODATA            Offs=00029A  Size=000000  Align=00001  Fill=0000
    BSS               Offs=002760  Size=000000  Align=00001  Fill=0000
    DATA              Offs=0000E2  Size=000000  Align=00001  Fill=0000
    ZEROPAGE          Offs=000000  Size=000000  Align=00001  Fill=0000
    NULL              Offs=000000  Size=000000  Align=00001  Fill=0000
/usr/local/Cellar/cc65/2.18/share/cc65/lib/apple2enh.lib(incsp7.o):
    CODE              Offs=00160A  Size=000005  Align=00001  Fill=0000
    RODATA            Offs=00029A  Size=000000  Align=00001  Fill=0000
    BSS               Offs=002760  Size=000000  Align=00001  Fill=0000
    DATA              Offs=0000E2  Size=000000  Align=00001  Fill=0000
    ZEROPAGE          Offs=000000  Size=000000  Align=00001  Fill=0000
    NULL              Offs=000000  Size=000000  Align=00001  Fill=0000
/usr/local/Cellar/cc65/2.18/share/cc65/lib/apple2enh.lib(incsp8.o):
    CODE              Offs=00160F  Size=000005  Align=00001  Fill=0000
    RODATA            Offs=00029A  Size=000000  Align=00001  Fill=0000
    BSS               Offs=002760  Size=000000  Align=00001  Fill=0000
    DATA              Offs=0000E2  Size=000000  Align=00001  Fill=0000
    ZEROPAGE          Offs=000000  Size=000000  Align=00001  Fill=0000
    NULL              Offs=000000  Size=000000  Align=00001  Fill=0000
/usr/local/Cellar/cc65/2.18/share/cc65/lib/apple2enh.lib(ldaui.o):
    CODE              Offs=001614  Size=000009  Align=00001  Fill=0000
    RODATA            Offs=00029A  Size=000000  Align=00001  Fill=0000
    BSS               Offs=002760  Size=000000  Align=00001  Fill=0000
    DATA              Offs=0000E2  Size=000000  Align=00001  Fill=0000
    ZEROPAGE          Offs=000000  Size=000000  Align=00001  Fill=0000
    NULL              Offs=000000  Size=000000  Align=00001  Fill=0000
/usr/local/Cellar/cc65/2.18/share/cc65/lib/apple2enh.lib(ldaxi.o):
    CODE              Offs=00161D  Size=00000D  Align=00001  Fill=0000
    RODATA            Offs=00029A  Size=000000  Align=00001  Fill=0000
    BSS               Offs=002760  Size=000000  Align=00001  Fill=0000
    DATA              Offs=0000E2  Size=000000  Align=00001  Fill=0000
    ZEROPAGE          Offs=000000  Size=000000  Align=00001  Fill=0000
    NULL              Offs=000000  Size=000000  Align=00001  Fill=0000
/usr/local/Cellar/cc65/2.18/share/cc65/lib/apple2enh.lib(ldaxsp.o):
    CODE              Offs=00162A  Size=000009  Align=00001  Fill=0000
    RODATA            Offs=00029A  Size=000000  Align=00001  Fill=0000
    BSS               Offs=002760  Size=000000  Align=00001  Fill=0000
    DATA              Offs=0000E2  Size=000000  Align=00001  Fill=0000
    ZEROPAGE          Offs=000000  Size=000000  Align=00001  Fill=0000
    NULL              Offs=000000  Size=000000  Align=00001  Fill=0000
/usr/local/Cellar/cc65/2.18/share/cc65/lib/apple2enh.lib(le.o):
    CODE              Offs=001633  Size=00000A  Align=00001  Fill=0000
    RODATA            Offs=00029A  Size=000000  Align=00001  Fill=0000
    BSS               Offs=002760  Size=000000  Align=00001  Fill=0000
    DATA              Offs=0000E2  Size=000000  Align=00001  Fill=0000
    ZEROPAGE          Offs=000000  Size=000000  Align=00001  Fill=0000
    NULL              Offs=000000  Size=000000  Align=00001  Fill=0000
/usr/local/Cellar/cc65/2.18/share/cc65/lib/apple2enh.lib(leaaxsp.o):
    CODE              Offs=00163D  Size=00000C  Align=00001  Fill=0000
    RODATA            Offs=00029A  Size=000000  Align=00001  Fill=0000
    BSS               Offs=002760  Size=000000  Align=00001  Fill=0000
    DATA              Offs=0000E2  Size=000000  Align=00001  Fill=0000
    ZEROPAGE          Offs=000000  Size=000000  Align=00001  Fill=0000
    NULL              Offs=000000  Size=000000  Align=00001  Fill=0000
/usr/local/Cellar/cc65/2.18/share/cc65/lib/apple2enh.lib(leave.o):
    CODE              Offs=001649  Size=00001B  Align=00001  Fill=0000
    RODATA            Offs=00029A  Size=000000  Align=00001  Fill=0000
    BSS               Offs=002760  Size=000000  Align=00001  Fill=0000
    DATA              Offs=0000E2  Size=000000  Align=00001  Fill=0000
    ZEROPAGE          Offs=000000  Size=000000  Align=00001  Fill=0000
    NULL              Offs=000000  Size=000000  Align=00001  Fill=0000
/usr/local/Cellar/cc65/2.18/share/cc65/lib/apple2enh.lib(lneg.o):
    CODE              Offs=001664  Size=00001E  Align=00001  Fill=0000
    RODATA            Offs=00029A  Size=000000  Align=00001  Fill=0000
    BSS               Offs=002760  Size=000000  Align=00001  Fill=0000
    DATA              Offs=0000E2  Size=000000  Align=00001  Fill=0000
    ZEROPAGE          Offs=000000  Size=000000  Align=00001  Fill=0000
    NULL              Offs=000000  Size=000000  Align=00001  Fill=0000
/usr/local/Cellar/cc65/2.18/share/cc65/lib/apple2enh.lib(lpush.o):
    CODE              Offs=001682  Size=00001E  Align=00001  Fill=0000
    RODATA            Offs=00029A  Size=000000  Align=00001  Fill=0000
    BSS               Offs=002760  Size=000000  Align=00001  Fill=0000
    DATA              Offs=0000E2  Size=000000  Align=00001  Fill=0000
    ZEROPAGE          Offs=000000  Size=000000  Align=00001  Fill=0000
    NULL              Offs=000000  Size=000000  Align=00001  Fill=0000
/usr/local/Cellar/cc65/2.18/share/cc65/lib/apple2enh.lib(lt.o):
    CODE              Offs=0016A0  Size=00000A  Align=00001  Fill=0000
    RODATA            Offs=00029A  Size=000000  Align=00001  Fill=0000
    BSS               Offs=002760  Size=000000  Align=00001  Fill=0000
    DATA              Offs=0000E2  Size=000000  Align=00001  Fill=0000
    ZEROPAGE          Offs=000000  Size=000000  Align=00001  Fill=0000
    NULL              Offs=000000  Size=000000  Align=00001  Fill=0000
/usr/local/Cellar/cc65/2.18/share/cc65/lib/apple2enh.lib(ltoa.o):
    CODE              Offs=0016AA  Size=000093  Align=00001  Fill=0000
    RODATA            Offs=00029A  Size=000000  Align=00001  Fill=0000
    BSS               Offs=002760  Size=000000  Align=00001  Fill=0000
    DATA              Offs=0000E2  Size=000000  Align=00001  Fill=0000
    ZEROPAGE          Offs=000000  Size=000000  Align=00001  Fill=0000
    NULL              Offs=000000  Size=000000  Align=00001  Fill=0000
/usr/local/Cellar/cc65/2.18/share/cc65/lib/apple2enh.lib(makebool.o):
    CODE              Offs=00173D  Size=00002C  Align=00001  Fill=0000
    RODATA            Offs=00029A  Size=000000  Align=00001  Fill=0000
    BSS               Offs=002760  Size=000000  Align=00001  Fill=0000
    DATA              Offs=0000E2  Size=000000  Align=00001  Fill=0000
    ZEROPAGE          Offs=000000  Size=000000  Align=00001  Fill=0000
    NULL              Offs=000000  Size=000000  Align=00001  Fill=0000
/usr/local/Cellar/cc65/2.18/share/cc65/lib/apple2enh.lib(memcpy.o):
    CODE              Offs=001769  Size=00003C  Align=00001  Fill=0000
    RODATA            Offs=00029A  Size=000000  Align=00001  Fill=0000
    BSS               Offs=002760  Size=000000  Align=00001  Fill=0000
    DATA              Offs=0000E2  Size=000000  Align=00001  Fill=0000
    ZEROPAGE          Offs=000000  Size=000000  Align=00001  Fill=0000
    NULL              Offs=000000  Size=000000  Align=00001  Fill=0000
/usr/local/Cellar/cc65/2.18/share/cc65/lib/apple2enh.lib(mod.o):
    CODE              Offs=0017A5  Size=000011  Align=00001  Fill=0000
    RODATA            Offs=00029A  Size=000000  Align=00001  Fill=0000
    BSS               Offs=002760  Size=000000  Align=00001  Fill=0000
    DATA              Offs=0000E2  Size=000000  Align=00001  Fill=0000
    ZEROPAGE          Offs=000000  Size=000000  Align=00001  Fill=0000
    NULL              Offs=000000  Size=000000  Align=00001  Fill=0000
/usr/local/Cellar/cc65/2.18/share/cc65/lib/apple2enh.lib(mul.o):
    CODE              Offs=0017B6  Size=000045  Align=00001  Fill=0000
    RODATA            Offs=00029A  Size=000000  Align=00001  Fill=0000
    BSS               Offs=002760  Size=000000  Align=00001  Fill=0000
    DATA              Offs=0000E2  Size=000000  Align=00001  Fill=0000
    ZEROPAGE          Offs=000000  Size=000000  Align=00001  Fill=0000
    NULL              Offs=000000  Size=000000  Align=00001  Fill=0000
/usr/local/Cellar/cc65/2.18/share/cc65/lib/apple2enh.lib(mul8.o):
    CODE              Offs=0017FB  Size=00003A  Align=00001  Fill=0000
    RODATA            Offs=00029A  Size=000000  Align=00001  Fill=0000
    BSS               Offs=002760  Size=000000  Align=00001  Fill=0000
    DATA              Offs=0000E2  Size=000000  Align=00001  Fill=0000
    ZEROPAGE          Offs=000000  Size=000000  Align=00001  Fill=0000
    NULL              Offs=000000  Size=000000  Align=00001  Fill=0000
/usr/local/Cellar/cc65/2.18/share/cc65/lib/apple2enh.lib(mulax10.o):
    CODE              Offs=001835  Size=000019  Align=00001  Fill=0000
    RODATA            Offs=00029A  Size=000000  Align=00001  Fill=0000
    BSS               Offs=002760  Size=000000  Align=00001  Fill=0000
    DATA              Offs=0000E2  Size=000000  Align=00001  Fill=0000
    ZEROPAGE          Offs=000000  Size=000000  Align=00001  Fill=0000
    NULL              Offs=000000  Size=000000  Align=00001  Fill=0000
/usr/local/Cellar/cc65/2.18/share/cc65/lib/apple2enh.lib(mulax5.o):
    CODE              Offs=00184E  Size=000014  Align=00001  Fill=0000
    RODATA            Offs=00029A  Size=000000  Align=00001  Fill=0000
    BSS               Offs=002760  Size=000000  Align=00001  Fill=0000
    DATA              Offs=0000E2  Size=000000  Align=00001  Fill=0000
    ZEROPAGE          Offs=000000  Size=000000  Align=00001  Fill=0000
    NULL              Offs=000000  Size=000000  Align=00001  Fill=0000
/usr/local/Cellar/cc65/2.18/share/cc65/lib/apple2enh.lib(ne.o):
    CODE              Offs=001862  Size=00000A  Align=00001  Fill=0000
    RODATA            Offs=00029A  Size=000000  Align=00001  Fill=0000
    BSS               Offs=002760  Size=000000  Align=00001  Fill=0000
    DATA              Offs=0000E2  Size=000000  Align=00001  Fill=0000
    ZEROPAGE          Offs=000000  Size=000000  Align=00001  Fill=0000
    NULL              Offs=000000  Size=000000  Align=00001  Fill=0000
/usr/local/Cellar/cc65/2.18/share/cc65/lib/apple2enh.lib(negabs.o):
    CODE              Offs=00186C  Size=000012  Align=00001  Fill=0000
    RODATA            Offs=00029A  Size=000000  Align=00001  Fill=0000
    BSS               Offs=002760  Size=000000  Align=00001  Fill=0000
    DATA              Offs=0000E2  Size=000000  Align=00001  Fill=0000
    ZEROPAGE          Offs=000000  Size=000000  Align=00001  Fill=0000
    NULL              Offs=000000  Size=000000  Align=00001  Fill=0000
/usr/local/Cellar/cc65/2.18/share/cc65/lib/apple2enh.lib(popa.o):
    CODE              Offs=00187E  Size=00000A  Align=00001  Fill=0000
    RODATA            Offs=00029A  Size=000000  Align=00001  Fill=0000
    BSS               Offs=002760  Size=000000  Align=00001  Fill=0000
    DATA              Offs=0000E2  Size=000000  Align=00001  Fill=0000
    ZEROPAGE          Offs=000000  Size=000000  Align=00001  Fill=0000
    NULL              Offs=000000  Size=000000  Align=00001  Fill=0000
/usr/local/Cellar/cc65/2.18/share/cc65/lib/apple2enh.lib(popptr1.o):
    CODE              Offs=001888  Size=00000E  Align=00001  Fill=0000
    RODATA            Offs=00029A  Size=000000  Align=00001  Fill=0000
    BSS               Offs=002760  Size=000000  Align=00001  Fill=0000
    DATA              Offs=0000E2  Size=000000  Align=00001  Fill=0000
    ZEROPAGE          Offs=000000  Size=000000  Align=00001  Fill=0000
    NULL              Offs=000000  Size=000000  Align=00001  Fill=0000
/usr/local/Cellar/cc65/2.18/share/cc65/lib/apple2enh.lib(push1.o):
    CODE              Offs=001896  Size=000005  Align=00001  Fill=0000
    RODATA            Offs=00029A  Size=000000  Align=00001  Fill=0000
    BSS               Offs=002760  Size=000000  Align=00001  Fill=0000
    DATA              Offs=0000E2  Size=000000  Align=00001  Fill=0000
    ZEROPAGE          Offs=000000  Size=000000  Align=00001  Fill=0000
    NULL              Offs=000000  Size=000000  Align=00001  Fill=0000
/usr/local/Cellar/cc65/2.18/share/cc65/lib/apple2enh.lib(pusha.o):
    CODE              Offs=00189B  Size=000016  Align=00001  Fill=0000
    RODATA            Offs=00029A  Size=000000  Align=00001  Fill=0000
    BSS               Offs=002760  Size=000000  Align=00001  Fill=0000
    DATA              Offs=0000E2  Size=000000  Align=00001  Fill=0000
    ZEROPAGE          Offs=000000  Size=000000  Align=00001  Fill=0000
    NULL              Offs=000000  Size=000000  Align=00001  Fill=0000
/usr/local/Cellar/cc65/2.18/share/cc65/lib/apple2enh.lib(pushax.o):
    CODE              Offs=0018B1  Size=00001A  Align=00001  Fill=0000
    RODATA            Offs=00029A  Size=000000  Align=00001  Fill=0000
    BSS               Offs=002760  Size=000000  Align=00001  Fill=0000
    DATA              Offs=0000E2  Size=000000  Align=00001  Fill=0000
    ZEROPAGE          Offs=000000  Size=000000  Align=00001  Fill=0000
    NULL              Offs=000000  Size=000000  Align=00001  Fill=0000
/usr/local/Cellar/cc65/2.18/share/cc65/lib/apple2enh.lib(pushwsp.o):
    CODE              Offs=0018CB  Size=00001C  Align=00001  Fill=0000
    RODATA            Offs=00029A  Size=000000  Align=00001  Fill=0000
    BSS               Offs=002760  Size=000000  Align=00001  Fill=0000
    DATA              Offs=0000E2  Size=000000  Align=00001  Fill=0000
    ZEROPAGE          Offs=000000  Size=000000  Align=00001  Fill=0000
    NULL              Offs=000000  Size=000000  Align=00001  Fill=0000
/usr/local/Cellar/cc65/2.18/share/cc65/lib/apple2enh.lib(rand.o):
    CODE              Offs=0018E7  Size=00004A  Align=00001  Fill=0000
    RODATA            Offs=00029A  Size=000000  Align=00001  Fill=0000
    BSS               Offs=002760  Size=000000  Align=00001  Fill=0000
    DATA              Offs=0000E2  Size=000004  Align=00001  Fill=0000
    ZEROPAGE          Offs=000000  Size=000000  Align=00001  Fill=0000
    NULL              Offs=000000  Size=000000  Align=00001  Fill=0000
/usr/local/Cellar/cc65/2.18/share/cc65/lib/apple2enh.lib(return0.o):
    CODE              Offs=001931  Size=000004  Align=00001  Fill=0000
    RODATA            Offs=00029A  Size=000000  Align=00001  Fill=0000
    BSS               Offs=002760  Size=000000  Align=00001  Fill=0000
    DATA              Offs=0000E6  Size=000000  Align=00001  Fill=0000
    ZEROPAGE          Offs=000000  Size=000000  Align=00001  Fill=0000
    NULL              Offs=000000  Size=000000  Align=00001  Fill=0000
/usr/local/Cellar/cc65/2.18/share/cc65/lib/apple2enh.lib(return1.o):
    CODE              Offs=001935  Size=000005  Align=00001  Fill=0000
    RODATA            Offs=00029A  Size=000000  Align=00001  Fill=0000
    BSS               Offs=002760  Size=000000  Align=00001  Fill=0000
    DATA              Offs=0000E6  Size=000000  Align=00001  Fill=0000
    ZEROPAGE          Offs=000000  Size=000000  Align=00001  Fill=0000
    NULL              Offs=000000  Size=000000  Align=00001  Fill=0000
/usr/local/Cellar/cc65/2.18/share/cc65/lib/apple2enh.lib(shelp.o):
    CODE              Offs=00193A  Size=000020  Align=00001  Fill=0000
    RODATA            Offs=00029A  Size=000000  Align=00001  Fill=0000
    BSS               Offs=002760  Size=000000  Align=00001  Fill=0000
    DATA              Offs=0000E6  Size=000000  Align=00001  Fill=0000
    ZEROPAGE          Offs=000000  Size=000000  Align=00001  Fill=0000
    NULL              Offs=000000  Size=000000  Align=00001  Fill=0000
/usr/local/Cellar/cc65/2.18/share/cc65/lib/apple2enh.lib(shrax2.o):
    CODE              Offs=00195A  Size=00000B  Align=00001  Fill=0000
    RODATA            Offs=00029A  Size=000000  Align=00001  Fill=0000
    BSS               Offs=002760  Size=000000  Align=00001  Fill=0000
    DATA              Offs=0000E6  Size=000000  Align=00001  Fill=0000
    ZEROPAGE          Offs=000000  Size=000000  Align=00001  Fill=0000
    NULL              Offs=000000  Size=000000  Align=00001  Fill=0000
/usr/local/Cellar/cc65/2.18/share/cc65/lib/apple2enh.lib(sprintf.o):
    CODE              Offs=001965  Size=00002B  Align=00001  Fill=0000
    RODATA            Offs=00029A  Size=000000  Align=00001  Fill=0000
    BSS               Offs=002760  Size=000001  Align=00001  Fill=0000
    DATA              Offs=0000E6  Size=000000  Align=00001  Fill=0000
    ZEROPAGE          Offs=000000  Size=000000  Align=00001  Fill=0000
    NULL              Offs=000000  Size=000000  Align=00001  Fill=0000
/usr/local/Cellar/cc65/2.18/share/cc65/lib/apple2enh.lib(staspidx.o):
    CODE              Offs=001990  Size=000016  Align=00001  Fill=0000
    RODATA            Offs=00029A  Size=000000  Align=00001  Fill=0000
    BSS               Offs=002761  Size=000000  Align=00001  Fill=0000
    DATA              Offs=0000E6  Size=000000  Align=00001  Fill=0000
    ZEROPAGE          Offs=000000  Size=000000  Align=00001  Fill=0000
    NULL              Offs=000000  Size=000000  Align=00001  Fill=0000
/usr/local/Cellar/cc65/2.18/share/cc65/lib/apple2enh.lib(staxsp.o):
    CODE              Offs=0019A6  Size=00000B  Align=00001  Fill=0000
    RODATA            Offs=00029A  Size=000000  Align=00001  Fill=0000
    BSS               Offs=002761  Size=000000  Align=00001  Fill=0000
    DATA              Offs=0000E6  Size=000000  Align=00001  Fill=0000
    ZEROPAGE          Offs=000000  Size=000000  Align=00001  Fill=0000
    NULL              Offs=000000  Size=000000  Align=00001  Fill=0000
/usr/local/Cellar/cc65/2.18/share/cc65/lib/apple2enh.lib(staxspi.o):
    CODE              Offs=0019B1  Size=00001A  Align=00001  Fill=0000
    RODATA            Offs=00029A  Size=000000  Align=00001  Fill=0000
    BSS               Offs=002761  Size=000000  Align=00001  Fill=0000
    DATA              Offs=0000E6  Size=000000  Align=00001  Fill=0000
    ZEROPAGE          Offs=000000  Size=000000  Align=00001  Fill=0000
    NULL              Offs=000000  Size=000000  Align=00001  Fill=0000
/usr/local/Cellar/cc65/2.18/share/cc65/lib/apple2enh.lib(strcpy.o):
    CODE              Offs=0019CB  Size=00001F  Align=00001  Fill=0000
    RODATA            Offs=00029A  Size=000000  Align=00001  Fill=0000
    BSS               Offs=002761  Size=000000  Align=00001  Fill=0000
    DATA              Offs=0000E6  Size=000000  Align=00001  Fill=0000
    ZEROPAGE          Offs=000000  Size=000000  Align=00001  Fill=0000
    NULL              Offs=000000  Size=000000  Align=00001  Fill=0000
/usr/local/Cellar/cc65/2.18/share/cc65/lib/apple2enh.lib(strlen.o):
    CODE              Offs=0019EA  Size=000016  Align=00001  Fill=0000
    RODATA            Offs=00029A  Size=000000  Align=00001  Fill=0000
    BSS               Offs=002761  Size=000000  Align=00001  Fill=0000
    DATA              Offs=0000E6  Size=000000  Align=00001  Fill=0000
    ZEROPAGE          Offs=000000  Size=000000  Align=00001  Fill=0000
    NULL              Offs=000000  Size=000000  Align=00001  Fill=0000
/usr/local/Cellar/cc65/2.18/share/cc65/lib/apple2enh.lib(strlower.o):
    CODE              Offs=001A00  Size=000028  Align=00001  Fill=0000
    RODATA            Offs=00029A  Size=000000  Align=00001  Fill=0000
    BSS               Offs=002761  Size=000000  Align=00001  Fill=0000
    DATA              Offs=0000E6  Size=000000  Align=00001  Fill=0000
    ZEROPAGE          Offs=000000  Size=000000  Align=00001  Fill=0000
    NULL              Offs=000000  Size=000000  Align=00001  Fill=0000
/usr/local/Cellar/cc65/2.18/share/cc65/lib/apple2enh.lib(sub.o):
    CODE              Offs=001A28  Size=000014  Align=00001  Fill=0000
    RODATA            Offs=00029A  Size=000000  Align=00001  Fill=0000
    BSS               Offs=002761  Size=000000  Align=00001  Fill=0000
    DATA              Offs=0000E6  Size=000000  Align=00001  Fill=0000
    ZEROPAGE          Offs=000000  Size=000000  Align=00001  Fill=0000
    NULL              Offs=000000  Size=000000  Align=00001  Fill=0000
/usr/local/Cellar/cc65/2.18/share/cc65/lib/apple2enh.lib(subysp.o):
    CODE              Offs=001A3C  Size=00000D  Align=00001  Fill=0000
    RODATA            Offs=00029A  Size=000000  Align=00001  Fill=0000
    BSS               Offs=002761  Size=000000  Align=00001  Fill=0000
    DATA              Offs=0000E6  Size=000000  Align=00001  Fill=0000
    ZEROPAGE          Offs=000000  Size=000000  Align=00001  Fill=0000
    NULL              Offs=000000  Size=000000  Align=00001  Fill=0000
/usr/local/Cellar/cc65/2.18/share/cc65/lib/apple2enh.lib(udiv.o):
    CODE              Offs=001A49  Size=00004F  Align=00001  Fill=0000
    RODATA            Offs=00029A  Size=000000  Align=00001  Fill=0000
    BSS               Offs=002761  Size=000000  Align=00001  Fill=0000
    DATA              Offs=0000E6  Size=000000  Align=00001  Fill=0000
    ZEROPAGE          Offs=000000  Size=000000  Align=00001  Fill=0000
    NULL              Offs=000000  Size=000000  Align=00001  Fill=0000
/usr/local/Cellar/cc65/2.18/share/cc65/lib/apple2enh.lib(uge.o):
    CODE              Offs=001A98  Size=00000A  Align=00001  Fill=0000
    RODATA            Offs=00029A  Size=000000  Align=00001  Fill=0000
    BSS               Offs=002761  Size=000000  Align=00001  Fill=0000
    DATA              Offs=0000E6  Size=000000  Align=00001  Fill=0000
    ZEROPAGE          Offs=000000  Size=000000  Align=00001  Fill=0000
    NULL              Offs=000000  Size=000000  Align=00001  Fill=0000
/usr/local/Cellar/cc65/2.18/share/cc65/lib/apple2enh.lib(ule.o):
    CODE              Offs=001AA2  Size=00000A  Align=00001  Fill=0000
    RODATA            Offs=00029A  Size=000000  Align=00001  Fill=0000
    BSS               Offs=002761  Size=000000  Align=00001  Fill=0000
    DATA              Offs=0000E6  Size=000000  Align=00001  Fill=0000
    ZEROPAGE          Offs=000000  Size=000000  Align=00001  Fill=0000
    NULL              Offs=000000  Size=000000  Align=00001  Fill=0000
/usr/local/Cellar/cc65/2.18/share/cc65/lib/apple2enh.lib(ult.o):
    CODE              Offs=001AAC  Size=000008  Align=00001  Fill=0000
    RODATA            Offs=00029A  Size=000000  Align=00001  Fill=0000
    BSS               Offs=002761  Size=000000  Align=00001  Fill=0000
    DATA              Offs=0000E6  Size=000000  Align=00001  Fill=0000
    ZEROPAGE          Offs=000000  Size=000000  Align=00001  Fill=0000
    NULL              Offs=000000  Size=000000  Align=00001  Fill=0000
/usr/local/Cellar/cc65/2.18/share/cc65/lib/apple2enh.lib(videomode.o):
    CODE              Offs=001AB4  Size=000000  Align=00001  Fill=0000
    RODATA            Offs=00029A  Size=000000  Align=00001  Fill=0000
    BSS               Offs=002761  Size=000000  Align=00001  Fill=0000
    DATA              Offs=0000E6  Size=000000  Align=00001  Fill=0000
    ZEROPAGE          Offs=000000  Size=000000  Align=00001  Fill=0000
    NULL              Offs=000000  Size=000000  Align=00001  Fill=0000
    LOWCODE           Offs=000014  Size=00002A  Align=00001  Fill=0000
/usr/local/Cellar/cc65/2.18/share/cc65/lib/apple2enh.lib(vsnprintf.o):
    CODE              Offs=001AB4  Size=0000DA  Align=00001  Fill=0000
    RODATA            Offs=00029A  Size=000000  Align=00001  Fill=0000
    BSS               Offs=002761  Size=000000  Align=00001  Fill=0000
    DATA              Offs=0000E6  Size=000008  Align=00001  Fill=0000
    ZEROPAGE          Offs=000000  Size=000000  Align=00001  Fill=0000
    NULL              Offs=000000  Size=000000  Align=00001  Fill=0000
/usr/local/Cellar/cc65/2.18/share/cc65/lib/apple2enh.lib(vsprintf.o):
    CODE              Offs=001B8E  Size=000012  Align=00001  Fill=0000
    RODATA            Offs=00029A  Size=000000  Align=00001  Fill=0000
    BSS               Offs=002761  Size=000000  Align=00001  Fill=0000
    DATA              Offs=0000EE  Size=000000  Align=00001  Fill=0000
    ZEROPAGE          Offs=000000  Size=000000  Align=00001  Fill=0000
    NULL              Offs=000000  Size=000000  Align=00001  Fill=0000
/usr/local/Cellar/cc65/2.18/share/cc65/lib/apple2enh.lib(vtabz.o):
    CODE              Offs=001BA0  Size=000000  Align=00001  Fill=0000
    RODATA            Offs=00029A  Size=000000  Align=00001  Fill=0000
    BSS               Offs=002761  Size=000000  Align=00001  Fill=0000
    DATA              Offs=0000EE  Size=000000  Align=00001  Fill=0000
    ZEROPAGE          Offs=000000  Size=000000  Align=00001  Fill=0000
    NULL              Offs=000000  Size=000000  Align=00001  Fill=0000
    LOWCODE           Offs=00003E  Size=00000A  Align=00001  Fill=0000
/usr/local/Cellar/cc65/2.18/share/cc65/lib/apple2enh.lib(zerobss.o):
    CODE              Offs=001BA0  Size=000023  Align=00001  Fill=0000
    RODATA            Offs=00029A  Size=000000  Align=00001  Fill=0000
    BSS               Offs=002761  Size=000000  Align=00001  Fill=0000
    DATA              Offs=0000EE  Size=000000  Align=00001  Fill=0000
    ZEROPAGE          Offs=000000  Size=000000  Align=00001  Fill=0000
    NULL              Offs=000000  Size=000000  Align=00001  Fill=0000
/usr/local/Cellar/cc65/2.18/share/cc65/lib/apple2enh.lib(zeropage.o):
    CODE              Offs=001BC3  Size=000000  Align=00001  Fill=0000
    RODATA            Offs=00029A  Size=000000  Align=00001  Fill=0000
    BSS               Offs=002761  Size=000000  Align=00001  Fill=0000
    DATA              Offs=0000EE  Size=000000  Align=00001  Fill=0000
    ZEROPAGE          Offs=000000  Size=00001A  Align=00001  Fill=0000
    NULL              Offs=000000  Size=000000  Align=00001  Fill=0000


Segment list:
-------------
Name                   Start     End    Size  Align
----------------------------------------------------
NULL                  000000  000000  000000  00001
ZEROPAGE              000080  000099  00001A  00001
EXEHDR                0007C9  000802  00003A  00001
STARTUP               000803  000836  000034  00001
LOWCODE               000837  00087E  000048  00001
CODE                  00087F  002441  001BC3  00001
RODATA                002442  0026DB  00029A  00001
DATA                  0026DC  0027C9  0000EE  00001
INIT                  0027CA  0027E6  00001D  00001
BSS                   0027E7  004F47  002761  00001
ONCE                  0027E7  002865  00007F  00001
LC                    00D000  00F1B9  0021BA  00001


Exports list by name:
---------------------
COUT                      000837 RLA    HOME                      000841 RLA    
VTABZ                     000875 RLA    _ENABLE_LC_BANK1          0026DC  LA    
__BSS_LOAD__              0027E7  LA    __BSS_RUN__               0027E7 RLA    
__BSS_SIZE__              002761 REA    __CONSTRUCTOR_COUNT__     000001 REA    
__CONSTRUCTOR_TABLE__     002864 RLA    __DESTRUCTOR_COUNT__      000000 REA    
__DESTRUCTOR_TABLE__      0026DC RLA    __EXEHDR__                000001 REA    
__FILETYPE__              000006 REA    __HIMEM__                 00C000 REA    
__LCADDR__                00D000 REA    __LCSIZE__                003000 REA    
__LC_FILEOFFS__           000000  EA    __LC_LAST__               00F1BA RLA    
__LC_SIZE__               003000  EA    __LC_START__              00D000 RLA    
__MAIN_FILEOFFS__         00003A  EA    __MAIN_LAST__             004A20 RLA    
__MAIN_SIZE__             00B7FD  EA    __MAIN_START__            000803 RLA    
__ONCE_LOAD__             0027E7 RLA    __ONCE_RUN__              0027E7 RLA    
__ONCE_SIZE__             00007F REA    __STACKSIZE__             000800 REA    
__STARTUP__               000001 REA    __ZP_FILEOFFS__           000000  EA    
__ZP_LAST__               00009A  LA    __ZP_SIZE__               00001A  EA    
__ZP_START__              000080  LA    __argc                    002792  LA    
__argv                    002794  LA    __ctype                   0025DC RLA    
__directerrno             00186B RLA    __errno                   004F45 RLA    
__hextab                  0025B9 RLA    __longminstr              0025C9 RLA    
__oserror                 004F19 RLA    __printf                  001967 RLA    
__seterrno                001C19 RLA    _a_chances                002D23  LA    
_a_class                  002D33  LA    _a_names                  002E18  LA    
_abs                      0020EB RLA    _after                    004E78 RLA    
_amulet                   004EBB RLA    _askme                    004E81  LA    
_buffer                   0027E7  LA    _cclear                   001C98 RLA    
_cclearxy                 001C93  LA    _cgetc                    001C9D RLA    
_chline                   001CCF  LA    _chlinexy                 001CCA  LA    
_clrscr                   000841 RLA    _command                  00155D RLA    
_conn                     00E276  LA    _count                    002D49 RLA    
_cputc                    001CF4 RLA    _cputcxy                  001CEF  LA    
_cputs                    001D54  LA    _cputsxy                  001D4A RLA    
_cur_armor                002B8E RLA    _cur_ring                 002B90  LA    
_cur_weapon               002B8C  LA    _cw                       003064 RLA    
_d_level                  00176E  LA    _debug_char               00DC8C  LA    
_debug_coord              00DCCB  LA    _debug_num                00DC3F  LA    
_delta                    004EBF  LA    _dnum                     002D4B  LA    
_do_move                  000E52 RLA    _do_passages              00DDDB RLA    
_do_rooms                 00D37F RLA    _doadd                    0011FE  LA    
_door                     00E80D  LA    _door_stop                004E7C RLA    
_draw_room                00D7D0  LA    _dungeon_window           0046F3 RLA    
_endmsg                   0013A3  LA    _exit                     00080F  LA    
_fight_flush              004E7A  LA    _file_name                002FC4  LA    
_firstmove                004E7F RLA    _food_left                002D53  LA    
_fruit                    002E96  LA    _fung_hit                 002D4D  LA    
_gotox                    001E0C  LA    _gotoxy                   001E01 RLA    
_group                    002D55  LA    _help_window              0037EB  LA    
_home                     003014  LA    _horiz                    00D9A1  LA    
_huh                      002EE6 RLA    _hungry_state             002D57 RLA    
_hw                       0037E9  LA    _in_shell                 004EBC  LA    
_inpack                   002D1D  LA    _jump                     004E7D  LA    
_lastscore                002D43  LA    _level                    002D14 RLA    
_light                    00099E RLA    _look                     00E8DA RLA    
_ltoa                     001F41 RLA    _lvl_obj                  002B8A  LA    
_main                     0008A4 RLA    _max_hp                   002D1F RLA    
_max_level                002D51 RLA    _max_stats                00293E  LA    
_memcpy                   001FE8 RLA    _mlist                    002920  LA    
_monster_window           003F6E RLA    _monsters                 00294E  LA    
_mpos                     002D17 RLA    _msg                      001322 RLA    
_mvwaddch                 00DBF4 RLA    _mvwinch                  00DBCC RLA    
_mw                       0046F1 RLA    _new_level                00D000 RLA    
_nh                       004EC1  LA    _no_command               002D1B RLA    
_no_food                  002D45  LA    _no_move                  002D19 RLA    
_notify                   004E79  LA    _ntraps                   002D18 RLA    
_oldpos                   004EBD RLA    _oldrp                    00291E RLA    
_p_colors                 002DCA  LA    _p_guess                  002F56  LA    
_p_know                   004E92  LA    _p_magic                  002C1E  LA    
_play_window              003066 RLA    _player                   002922 RLA    
_playing                  0026DF RLA    _playit                   00087F  LA    
_prbuf                    002D59  LA    _purse                    002D15 RLA    
_quiet                    002D4F  LA    _r_guess                  002F72  LA    
_r_know                   004EA0  LA    _r_magic                  002C72  LA    
_r_stones                 002DE6  LA    _rand                     002166 RLA    
_release                  002E44  LA    _rnd                      00096A RLA    
_rnd_pos                  00D763 RLA    _rnd_room                 00D33A RLA    
_roomin                   001456 RLA    _rooms                    00286A RLA    
_runch                    002DA9 RLA    _running                  0026DE RLA    
_s_guess                  002F36  LA    _s_know                   004E82  LA    
_s_magic                  002BBE  LA    _s_names                  002DAA  LA    
_secretdoor               00F010  LA    _seed                     002D47  LA    
_show                     000C6C RLA    _show_window              00DC20 RLA    
_slow_invent              004E7E  LA    _sprintf                  0021E4 RLA    
_srand                    0021A1  LA    _status                   001234 RLA    
_stdscr                   004E76 RLA    _strcpy                   00224A RLA    
_strlen                   002269 RLA    _strlower                 00227F RLA    
_strlwr                   00227F  LA    _take                     002D58 RLA    
_terse                    004E7B  LA    _things                   002B94  LA    
_total                    002D21  LA    _trap_at                  000DA6  LA    
_traps                    002838 RLA    _u_level                  0017E0  LA    
_ultoa                    001F80 RLA    _vert                     00D9C9  LA    
_videomode                00084B RLA    _vsnprintf                002333  LA    
_vsprintf                 00240D RLA    _w_names                  002E00  LA    
_waddch                   00DA6A RLA    _waddstr                  00DD97 RLA    
_wait_for                 001435  LA    _waswizard                004E80  LA    
_wclear                   00DB30 RLA    _wclrtoeol                00DD2A RLA    
_whoami                   002E46  LA    _winch                    00DAD8 RLA    
_wizard                   0026E0  LA    _wmove                    00DA3D RLA    
_ws_guess                 002F8C  LA    _ws_know                  004EAD  LA    
_ws_made                  002E28  LA    _ws_magic                 002CC0  LA    
_ws_type                  002FA8  LA    addeq0sp                  001C3A  LA    
addeqysp                  001C3C RLA    addysp                    001C4C RLA    
addysp1                   001C4B RLA    aslax1                    001C59 RLA    
axlong                    001C61 RLA    axulong                   001C67 RLA    
bnega                     001C72 RLA    bnegax                    001C6E RLA    
booleq                    001FC2 RLA    boolge                    001FD3 RLA    
boolgt                    001FD1  LA    boolle                    001FC9 RLA    
boollt                    001FCB RLA    boolne                    001FBC RLA    
booluge                   001FE3 RLA    boolugt                   001FE1  LA    
boolule                   001FD9 RLA    boolult                   001FDB RLA    
callmain                  001C7C RLA    chlinedirect              001CD1 RLA    
condes                    002796  LA    cputdirect                001CFE RLA    
cursor                    004F18 RLA    decax1                    001D7F RLA    
decax2                    001D86 RLA    decax4                    001D8D RLA    
decsp1                    001D94 RLA    decsp2                    001D9D RLA    
decsp4                    001DAA RLA    decsp5                    001DB7 RLA    
decsp6                    001DC4 RLA    done                      0027BB  LA    
donelib                   001CE3 RLA    enter                     001DE6 RLA    
gotoxy                    001DFE RLA    incax2                    001E3D RLA    
incax3                    001E44 RLA    incax4                    001E4E RLA    
incax5                    001E49 RLA    incaxy                    001E50 RLA    
incsp1                    001E59 RLA    incsp2                    001E67 RLA    
incsp3                    001E75 RLA    incsp4                    001E7A RLA    
incsp5                    001E7F RLA    incsp6                    001E84 RLA    
incsp7                    001E89 RLA    incsp8                    001E8E RLA    
initconio                 0027F3  LAI   initlib                   0027E7 RLA    
ldauidx                   001E93 RLA    ldax0sp                   001EA9  LA    
ldaxi                     001E9C  LA    ldaxidx                   001E9E RLA    
ldaxysp                   001EAB RLA    leaa0sp                   001EBC RLA    
leaaxsp                   001EBE RLA    leave                     001ED5  LA    
leave0                    001ECA  LA    leave00                   001EC8  LA    
leavey                    001ED2 RLA    leavey0                   001ED0  LA    
leavey00                  001ECE  LA    memcpy_getparams          002011  LA    
memcpy_upwards            001FEB  LA    mul8x16                   00207C RLA    
mul8x16a                  002086 RLA    mulax10                   0020B4 RLA    
mulax5                    0020CD RLA    negax                     0020EF RLA    
negeax                    001EE3 RLA    newline                   001D11  LA    
popa                      0020FD RLA    popax                     001E60 RLA    
popptr1                   002107 RLA    popsargsudiv16            0021B9 RLA    
ptr1                      000088 RLZ    ptr2                      00008A RLZ    
ptr3                      00008C RLZ    ptr4                      00008E RLZ    
push0                     002130  LA    push0ax                   001F04  LA    
push1                     002115 RLA    pusha                     00211E RLA    
pusha0                    002132 RLA    pusha0sp                  00211A  LA    
pushax                    002134 RLA    pushaysp                  00211C  LA    
pusheax                   001F08 RLA    pushl0                    001F01  LA    
pushw0sp                  00214A RLA    pushwysp                  00214C  LA    
putchar                   001D20  LA    putchardirect             001D30 RLA    
regbank                   000094 RLZ    regsave                   000084 RLZ    
return                    001D78  LA    return0                   0021B0 RLA    
return1                   0021B4 RLA    shlax1                    001C59  LA    
shrax2                    0021D9 RLA    sp                        000080 RLZ    
sreg                      000082 RLZ    staspidx                  00220F RLA    
stax0sp                   002225  LA    staxspidx                 002230 RLA    
staxysp                   002227 RLA    subysp                    0022BB RLA    
tmp1                      000090 RLZ    tmp2                      000091 RLZ    
tmp3                      000092  LZ    tmp4                      000093  LZ    
tosadda0                  001C22  LA    tosaddax                  001C24 RLA    
tosdiva0                  001DD1  LA    tosdivax                  001DD3 RLA    
toseq00                   001DF4  LA    toseqa0                   001DF6  LA    
toseqax                   001DF8 RLA    tosicmp                   001E11 RLA    
tosicmp0                  001E0F  LA    tosle00                   001EB2  LA    
toslea0                   001EB4  LA    tosleax                   001EB6 RLA    
toslt00                   001F1F  LA    toslta0                   001F21  LA    
tosltax                   001F23 RLA    tosmoda0                  002024  LA    
tosmodax                  002026 RLA    tosmula0                  00207A  LA    
tosmulax                  002035 RLA    tosne00                   0020E1  LA    
tosnea0                   0020E3  LA    tosneax                   0020E5 RLA    
tossuba0                  0022A7  LA    tossubax                  0022A9 RLA    
tosudiva0                 0022C8  LA    tosudivax                 0022CA  LA    
tosuge00                  002317  LA    tosugea0                  002319  LA    
tosugeax                  00231B RLA    tosule00                  002321  LA    
tosulea0                  002323  LA    tosuleax                  002325 RLA    
tosult00                  0021B0  EA    tosulta0                  00232B  LA    
tosultax                  00232D RLA    tosumula0                 00207A  LA    
tosumulax                 002035 RLA    udiv16                    0022D9 RLA    
vsnprintf                 002336 RLA    zerobss                   00241F RLA    



Exports list by value:
----------------------
__ZP_FILEOFFS__           000000  EA    __DESTRUCTOR_COUNT__      000000 REA    
__LC_FILEOFFS__           000000  EA    __EXEHDR__                000001 REA    
__STARTUP__               000001 REA    __CONSTRUCTOR_COUNT__     000001 REA    
__FILETYPE__              000006 REA    __ZP_SIZE__               00001A  EA    
__MAIN_FILEOFFS__         00003A  EA    __ONCE_SIZE__             00007F REA    
sp                        000080 RLZ    __ZP_START__              000080  LA    
sreg                      000082 RLZ    regsave                   000084 RLZ    
ptr1                      000088 RLZ    ptr2                      00008A RLZ    
ptr3                      00008C RLZ    ptr4                      00008E RLZ    
tmp1                      000090 RLZ    tmp2                      000091 RLZ    
tmp3                      000092  LZ    tmp4                      000093  LZ    
regbank                   000094 RLZ    __ZP_LAST__               00009A  LA    
__STACKSIZE__             000800 REA    __MAIN_START__            000803 RLA    
_exit                     00080F  LA    COUT                      000837 RLA    
HOME                      000841 RLA    _clrscr                   000841 RLA    
_videomode                00084B RLA    VTABZ                     000875 RLA    
_playit                   00087F  LA    _main                     0008A4 RLA    
_rnd                      00096A RLA    _light                    00099E RLA    
_show                     000C6C RLA    _trap_at                  000DA6  LA    
_do_move                  000E52 RLA    _doadd                    0011FE  LA    
_status                   001234 RLA    _msg                      001322 RLA    
_endmsg                   0013A3  LA    _wait_for                 001435  LA    
_roomin                   001456 RLA    _command                  00155D RLA    
_d_level                  00176E  LA    _u_level                  0017E0  LA    
__directerrno             00186B RLA    __printf                  001967 RLA    
__seterrno                001C19 RLA    tosadda0                  001C22  LA    
tosaddax                  001C24 RLA    addeq0sp                  001C3A  LA    
addeqysp                  001C3C RLA    addysp1                   001C4B RLA    
addysp                    001C4C RLA    aslax1                    001C59 RLA    
shlax1                    001C59  LA    axlong                    001C61 RLA    
axulong                   001C67 RLA    bnegax                    001C6E RLA    
bnega                     001C72 RLA    callmain                  001C7C RLA    
_cclearxy                 001C93  LA    _cclear                   001C98 RLA    
_cgetc                    001C9D RLA    _chlinexy                 001CCA  LA    
_chline                   001CCF  LA    chlinedirect              001CD1 RLA    
donelib                   001CE3 RLA    _cputcxy                  001CEF  LA    
_cputc                    001CF4 RLA    cputdirect                001CFE RLA    
newline                   001D11  LA    putchar                   001D20  LA    
putchardirect             001D30 RLA    _cputsxy                  001D4A RLA    
_cputs                    001D54  LA    return                    001D78  LA    
decax1                    001D7F RLA    decax2                    001D86 RLA    
decax4                    001D8D RLA    decsp1                    001D94 RLA    
decsp2                    001D9D RLA    decsp4                    001DAA RLA    
decsp5                    001DB7 RLA    decsp6                    001DC4 RLA    
tosdiva0                  001DD1  LA    tosdivax                  001DD3 RLA    
enter                     001DE6 RLA    toseq00                   001DF4  LA    
toseqa0                   001DF6  LA    toseqax                   001DF8 RLA    
gotoxy                    001DFE RLA    _gotoxy                   001E01 RLA    
_gotox                    001E0C  LA    tosicmp0                  001E0F  LA    
tosicmp                   001E11 RLA    incax2                    001E3D RLA    
incax3                    001E44 RLA    incax5                    001E49 RLA    
incax4                    001E4E RLA    incaxy                    001E50 RLA    
incsp1                    001E59 RLA    popax                     001E60 RLA    
incsp2                    001E67 RLA    incsp3                    001E75 RLA    
incsp4                    001E7A RLA    incsp5                    001E7F RLA    
incsp6                    001E84 RLA    incsp7                    001E89 RLA    
incsp8                    001E8E RLA    ldauidx                   001E93 RLA    
ldaxi                     001E9C  LA    ldaxidx                   001E9E RLA    
ldax0sp                   001EA9  LA    ldaxysp                   001EAB RLA    
tosle00                   001EB2  LA    toslea0                   001EB4  LA    
tosleax                   001EB6 RLA    leaa0sp                   001EBC RLA    
leaaxsp                   001EBE RLA    leave00                   001EC8  LA    
leave0                    001ECA  LA    leavey00                  001ECE  LA    
leavey0                   001ED0  LA    leavey                    001ED2 RLA    
leave                     001ED5  LA    negeax                    001EE3 RLA    
pushl0                    001F01  LA    push0ax                   001F04  LA    
pusheax                   001F08 RLA    toslt00                   001F1F  LA    
toslta0                   001F21  LA    tosltax                   001F23 RLA    
_ltoa                     001F41 RLA    _ultoa                    001F80 RLA    
boolne                    001FBC RLA    booleq                    001FC2 RLA    
boolle                    001FC9 RLA    boollt                    001FCB RLA    
boolgt                    001FD1  LA    boolge                    001FD3 RLA    
boolule                   001FD9 RLA    boolult                   001FDB RLA    
boolugt                   001FE1  LA    booluge                   001FE3 RLA    
_memcpy                   001FE8 RLA    memcpy_upwards            001FEB  LA    
memcpy_getparams          002011  LA    tosmoda0                  002024  LA    
tosmodax                  002026 RLA    tosmulax                  002035 RLA    
tosumulax                 002035 RLA    tosmula0                  00207A  LA    
tosumula0                 00207A  LA    mul8x16                   00207C RLA    
mul8x16a                  002086 RLA    mulax10                   0020B4 RLA    
mulax5                    0020CD RLA    tosne00                   0020E1  LA    
tosnea0                   0020E3  LA    tosneax                   0020E5 RLA    
_abs                      0020EB RLA    negax                     0020EF RLA    
popa                      0020FD RLA    popptr1                   002107 RLA    
push1                     002115 RLA    pusha0sp                  00211A  LA    
pushaysp                  00211C  LA    pusha                     00211E RLA    
push0                     002130  LA    pusha0                    002132 RLA    
pushax                    002134 RLA    pushw0sp                  00214A RLA    
pushwysp                  00214C  LA    _rand                     002166 RLA    
_srand                    0021A1  LA    return0                   0021B0 RLA    
tosult00                  0021B0  EA    return1                   0021B4 RLA    
popsargsudiv16            0021B9 RLA    shrax2                    0021D9 RLA    
_sprintf                  0021E4 RLA    staspidx                  00220F RLA    
stax0sp                   002225  LA    staxysp                   002227 RLA    
staxspidx                 002230 RLA    _strcpy                   00224A RLA    
_strlen                   002269 RLA    _strlower                 00227F RLA    
_strlwr                   00227F  LA    tossuba0                  0022A7  LA    
tossubax                  0022A9 RLA    subysp                    0022BB RLA    
tosudiva0                 0022C8  LA    tosudivax                 0022CA  LA    
udiv16                    0022D9 RLA    tosuge00                  002317  LA    
tosugea0                  002319  LA    tosugeax                  00231B RLA    
tosule00                  002321  LA    tosulea0                  002323  LA    
tosuleax                  002325 RLA    tosulta0                  00232B  LA    
tosultax                  00232D RLA    _vsnprintf                002333  LA    
vsnprintf                 002336 RLA    _vsprintf                 00240D RLA    
zerobss                   00241F RLA    __hextab                  0025B9 RLA    
__longminstr              0025C9 RLA    __ctype                   0025DC RLA    
__DESTRUCTOR_TABLE__      0026DC RLA    _ENABLE_LC_BANK1          0026DC  LA    
_running                  0026DE RLA    _playing                  0026DF RLA    
_wizard                   0026E0  LA    __BSS_SIZE__              002761 REA    
__argc                    002792  LA    __argv                    002794  LA    
condes                    002796  LA    done                      0027BB  LA    
_buffer                   0027E7  LA    __ONCE_RUN__              0027E7 RLA    
__BSS_RUN__               0027E7 RLA    __BSS_LOAD__              0027E7  LA    
__ONCE_LOAD__             0027E7 RLA    initlib                   0027E7 RLA    
initconio                 0027F3  LAI   _traps                    002838 RLA    
__CONSTRUCTOR_TABLE__     002864 RLA    _rooms                    00286A RLA    
_oldrp                    00291E RLA    _mlist                    002920  LA    
_player                   002922 RLA    _max_stats                00293E  LA    
_monsters                 00294E  LA    _lvl_obj                  002B8A  LA    
_cur_weapon               002B8C  LA    _cur_armor                002B8E RLA    
_cur_ring                 002B90  LA    _things                   002B94  LA    
_s_magic                  002BBE  LA    _p_magic                  002C1E  LA    
_r_magic                  002C72  LA    _ws_magic                 002CC0  LA    
_level                    002D14 RLA    _purse                    002D15 RLA    
_mpos                     002D17 RLA    _ntraps                   002D18 RLA    
_no_move                  002D19 RLA    _no_command               002D1B RLA    
_inpack                   002D1D  LA    _max_hp                   002D1F RLA    
_total                    002D21  LA    _a_chances                002D23  LA    
_a_class                  002D33  LA    _lastscore                002D43  LA    
_no_food                  002D45  LA    _seed                     002D47  LA    
_count                    002D49 RLA    _dnum                     002D4B  LA    
_fung_hit                 002D4D  LA    _quiet                    002D4F  LA    
_max_level                002D51 RLA    _food_left                002D53  LA    
_group                    002D55  LA    _hungry_state             002D57 RLA    
_take                     002D58 RLA    _prbuf                    002D59  LA    
_runch                    002DA9 RLA    _s_names                  002DAA  LA    
_p_colors                 002DCA  LA    _r_stones                 002DE6  LA    
_w_names                  002E00  LA    _a_names                  002E18  LA    
_ws_made                  002E28  LA    _release                  002E44  LA    
_whoami                   002E46  LA    _fruit                    002E96  LA    
_huh                      002EE6 RLA    _s_guess                  002F36  LA    
_p_guess                  002F56  LA    _r_guess                  002F72  LA    
_ws_guess                 002F8C  LA    _ws_type                  002FA8  LA    
_file_name                002FC4  LA    __LC_SIZE__               003000  EA    
__LCSIZE__                003000 REA    _home                     003014  LA    
_cw                       003064 RLA    _play_window              003066 RLA    
_hw                       0037E9  LA    _help_window              0037EB  LA    
_monster_window           003F6E RLA    _mw                       0046F1 RLA    
_dungeon_window           0046F3 RLA    __MAIN_LAST__             004A20 RLA    
_stdscr                   004E76 RLA    _after                    004E78 RLA    
_notify                   004E79  LA    _fight_flush              004E7A  LA    
_terse                    004E7B  LA    _door_stop                004E7C RLA    
_jump                     004E7D  LA    _slow_invent              004E7E  LA    
_firstmove                004E7F RLA    _waswizard                004E80  LA    
_askme                    004E81  LA    _s_know                   004E82  LA    
_p_know                   004E92  LA    _r_know                   004EA0  LA    
_ws_know                  004EAD  LA    _amulet                   004EBB RLA    
_in_shell                 004EBC  LA    _oldpos                   004EBD RLA    
_delta                    004EBF  LA    _nh                       004EC1  LA    
cursor                    004F18 RLA    __oserror                 004F19 RLA    
__errno                   004F45 RLA    __MAIN_SIZE__             00B7FD  EA    
__HIMEM__                 00C000 REA    __LCADDR__                00D000 REA    
__LC_START__              00D000 RLA    _new_level                00D000 RLA    
_rnd_room                 00D33A RLA    _do_rooms                 00D37F RLA    
_rnd_pos                  00D763 RLA    _draw_room                00D7D0  LA    
_horiz                    00D9A1  LA    _vert                     00D9C9  LA    
_wmove                    00DA3D RLA    _waddch                   00DA6A RLA    
_winch                    00DAD8 RLA    _wclear                   00DB30 RLA    
_mvwinch                  00DBCC RLA    _mvwaddch                 00DBF4 RLA    
_show_window              00DC20 RLA    _debug_num                00DC3F  LA    
_debug_char               00DC8C  LA    _debug_coord              00DCCB  LA    
_wclrtoeol                00DD2A RLA    _waddstr                  00DD97 RLA    
_do_passages              00DDDB RLA    _conn                     00E276  LA    
_door                     00E80D  LA    _look                     00E8DA RLA    
_secretdoor               00F010  LA    __LC_LAST__               00F1BA RLA    



Imports list:
-------------
COUT (cout.o):
    videomode.o               apple2/videomode.s(9)
HOME (home.o):
    clrscr.o                  apple2/clrscr.s(8)
VTABZ (vtabz.o):
    gotoxy.o                  apple2/gotoxy.s(9)
    cputc.o                   apple2/cputc.s(13)
_ENABLE_LC_BANK1 (main.o):
__BSS_LOAD__ ([linker generated]):
__BSS_RUN__ ([linker generated]):
    zerobss.o                 common/zerobss.s(8)
__BSS_SIZE__ ([linker generated]):
    zerobss.o                 common/zerobss.s(8)
__CONSTRUCTOR_COUNT__ ([linker generated]):
    condes.o                  runtime/condes.s(18)
__CONSTRUCTOR_TABLE__ ([linker generated]):
    condes.o                  runtime/condes.s(18)
__DESTRUCTOR_COUNT__ ([linker generated]):
    condes.o                  runtime/condes.s(19)
__DESTRUCTOR_TABLE__ ([linker generated]):
    condes.o                  runtime/condes.s(19)
__EXEHDR__ (exehdr.o):
    [linker generated]        a2rogue.cfg(7)
__FILETYPE__ ([linker generated]):
    exehdr.o                  apple2/exehdr.s(9)
__HIMEM__ ([linker generated]):
    [linker generated]        a2rogue.cfg(18)
    [linker generated]        a2rogue.cfg(17)
__LCADDR__ ([linker generated]):
    [linker generated]        a2rogue.cfg(19)
__LCSIZE__ ([linker generated]):
    [linker generated]        a2rogue.cfg(19)
__LC_FILEOFFS__ ([linker generated]):
__LC_LAST__ ([linker generated]):
    crt0.o                    apple2/crt0.s(13)
__LC_SIZE__ ([linker generated]):
__LC_START__ ([linker generated]):
    crt0.o                    apple2/crt0.s(13)
__MAIN_FILEOFFS__ ([linker generated]):
__MAIN_LAST__ ([linker generated]):
    exehdr.o                  apple2/exehdr.s(10)
__MAIN_SIZE__ ([linker generated]):
__MAIN_START__ ([linker generated]):
    exehdr.o                  apple2/exehdr.s(10)
__ONCE_LOAD__ ([linker generated]):
    crt0.o                    apple2/crt0.s(12)
__ONCE_RUN__ ([linker generated]):
    [linker generated]        a2rogue.cfg(18)
    [linker generated]        a2rogue.cfg(18)
__ONCE_SIZE__ ([linker generated]):
    crt0.o                    apple2/crt0.s(12)
__STACKSIZE__ ([linker generated]):
    [linker generated]        a2rogue.cfg(18)
__STARTUP__ (crt0.o):
    main.o                    main.s(13)
__ZP_FILEOFFS__ ([linker generated]):
__ZP_LAST__ ([linker generated]):
__ZP_SIZE__ ([linker generated]):
__ZP_START__ ([linker generated]):
__argc (callmain.o):
__argv (callmain.o):
__ctype (ctype.o):
    strlower.o                common/strlower.s(13)
__directerrno (_directerrno.o):
    vsnprintf.o               /private/tmp/cc65-20190531-26117-1un8vyh/cc65-2.18/asminc/errno.inc(10)
__errno (errno.o):
    _seterrno.o               /private/tmp/cc65-20190531-26117-1un8vyh/cc65-2.18/asminc/errno.inc(7)
__hextab (_hextab.o):
    ltoa.o                    common/ltoa.s(10)
__longminstr (_longminstr.o):
    ltoa.o                    common/ltoa.s(10)
__oserror (_oserror.o):
    _directerrno.o            /private/tmp/cc65-20190531-26117-1un8vyh/cc65-2.18/asminc/errno.inc(7)
__printf (_printf.o):
    vsnprintf.o               common/vsnprintf.s(10)
__seterrno (_seterrno.o):
    _directerrno.o            /private/tmp/cc65-20190531-26117-1un8vyh/cc65-2.18/asminc/errno.inc(9)
_a_chances (rogue.o):
_a_class (rogue.o):
_a_names (rogue.o):
_abs (negabs.o):
    passages.o                passages.s(13)
_after (rogue.o):
    command.o                 command.s(24)
    move.o                    move.s(21)
_amulet (rogue.o):
    command.o                 command.s(25)
    rooms.o                   rooms.s(17)
_askme (rogue.o):
_buffer (curses.o):
_cclear (cclear.o):
    curses.o                  curses.s(17)
_cclearxy (cclear.o):
_cgetc (cgetc.o):
    command.o                 command.s(32)
    io.o                      io.s(36)
    curses.o                  curses.s(16)
    main.o                    main.s(31)
_chline (chline.o):
_chlinexy (chline.o):
_clrscr (clrscr.o):
    curses.o                  curses.s(13)
    main.o                    main.s(30)
_command (command.o):
    main.o                    main.s(34)
_conn (passages.o):
_count (rogue.o):
    command.o                 command.s(17)
_cputc (cputc.o):
    cputs.o                   conio/cputs.s(9)
_cputcxy (cputc.o):
_cputs (cputs.o):
_cputsxy (cputs.o):
    curses.o                  curses.s(15)
_cur_armor (rogue.o):
    io.o                      io.s(14)
_cur_ring (rogue.o):
_cur_weapon (rogue.o):
_cw (rogue.o):
    misc.o                    misc.s(17)
    command.o                 command.s(20)
    io.o                      io.s(21)
    move.o                    move.s(17)
    new_level.o               new_level.s(18)
    main.o                    main.s(19)
_d_level (command.o):
_debug_char (curses.o):
_debug_coord (curses.o):
_debug_num (curses.o):
_delta (rogue.o):
_dnum (rogue.o):
_do_move (move.o):
    command.o                 command.s(33)
_do_passages (passages.o):
    new_level.o               new_level.s(25)
_do_rooms (rooms.o):
    new_level.o               new_level.s(23)
_doadd (io.o):
_door (passages.o):
_door_stop (rogue.o):
    misc.o                    misc.s(19)
_draw_room (rooms.o):
_dungeon_window (rogue.o):
    main.o                    main.s(23)
_endmsg (io.o):
_exit (crt0.o):
_fight_flush (rogue.o):
_file_name (rogue.o):
_firstmove (rogue.o):
    misc.o                    misc.s(20)
    move.o                    move.s(22)
_food_left (rogue.o):
_fruit (rogue.o):
_fung_hit (rogue.o):
_gotox (gotoxy.o):
_gotoxy (gotoxy.o):
    curses.o                  curses.s(14)
_group (rogue.o):
_help_window (rogue.o):
_home (rogue.o):
_horiz (rooms.o):
_huh (rogue.o):
    io.o                      io.s(20)
_hungry_state (rogue.o):
    io.o                      io.s(19)
    main.o                    main.s(18)
_hw (rogue.o):
_in_shell (rogue.o):
_inpack (rogue.o):
_jump (rogue.o):
_lastscore (rogue.o):
_level (rogue.o):
    command.o                 command.s(14)
    io.o                      io.s(15)
    passages.o                passages.s(15)
    rooms.o                   rooms.s(14)
    new_level.o               new_level.s(16)
    main.o                    main.s(16)
_light (move.o):
    new_level.o               new_level.s(33)
_look (misc.o):
    command.o                 command.s(34)
_ltoa (ltoa.o):
    _printf.o                 common/_printf.s(12)
_lvl_obj (rogue.o):
_main (main.o):
    callmain.o                runtime/callmain.s(11)
_max_hp (rogue.o):
    io.o                      io.s(18)
_max_level (rogue.o):
    rooms.o                   rooms.s(15)
_max_stats (rogue.o):
_memcpy (memcpy.o):
    vsnprintf.o               common/vsnprintf.s(10)
_mlist (rogue.o):
_monster_window (rogue.o):
    main.o                    main.s(21)
_monsters (rogue.o):
_mpos (rogue.o):
    command.o                 command.s(15)
    io.o                      io.s(17)
_msg (io.o):
    command.o                 command.s(31)
    move.o                    move.s(32)
_mvwaddch (curses.o):
    misc.o                    misc.s(24)
    move.o                    move.s(27)
    rooms.o                   rooms.s(20)
_mvwinch (curses.o):
    command.o                 command.s(28)
    io.o                      io.s(24)
    move.o                    move.s(26)
    new_level.o               new_level.s(31)
_mw (rogue.o):
    command.o                 command.s(21)
    move.o                    move.s(18)
    new_level.o               new_level.s(19)
    main.o                    main.s(22)
_new_level (new_level.o):
    command.o                 command.s(38)
    main.o                    main.s(27)
_nh (move.o):
_no_command (rogue.o):
    command.o                 command.s(16)
_no_food (rogue.o):
_no_move (rogue.o):
    move.o                    move.s(16)
_notify (rogue.o):
_ntraps (rogue.o):
    move.o                    move.s(15)
    new_level.o               new_level.s(17)
_oldpos (rogue.o):
    misc.o                    misc.s(21)
    main.o                    main.s(26)
_oldrp (rogue.o):
    misc.o                    misc.s(14)
    main.o                    main.s(14)
_p_colors (rogue.o):
_p_guess (rogue.o):
_p_know (rogue.o):
_p_magic (rogue.o):
_play_window (rogue.o):
    io.o                      io.s(22)
    main.o                    main.s(20)
_player (rogue.o):
    misc.o                    misc.s(15)
    command.o                 command.s(13)
    io.o                      io.s(13)
    move.o                    move.s(14)
    new_level.o               new_level.s(15)
    main.o                    main.s(15)
_playing (rogue.o):
    main.o                    main.s(25)
_playit (main.o):
_prbuf (rogue.o):
_purse (rogue.o):
    io.o                      io.s(16)
    main.o                    main.s(17)
_quiet (rogue.o):
_r_guess (rogue.o):
_r_know (rogue.o):
_r_magic (rogue.o):
_r_stones (rogue.o):
_rand (rand.o):
    random.o                  random.s(14)
_release (rogue.o):
_rnd (random.o):
    passages.o                passages.s(19)
    rooms.o                   rooms.s(25)
    new_level.o               new_level.s(26)
    main.o                    main.s(32)
_rnd_pos (rooms.o):
    new_level.o               new_level.s(24)
_rnd_room (new_level.o):
    rooms.o                   rooms.s(27)
_roomin (chase.o):
    misc.o                    misc.s(26)
    move.o                    move.s(33)
    main.o                    main.s(33)
_rooms (rogue.o):
    misc.o                    misc.s(13)
    chase.o                   chase.s(13)
    passages.o                passages.s(14)
    rooms.o                   rooms.s(13)
    new_level.o               new_level.s(14)
_runch (rogue.o):
    misc.o                    misc.s(16)
    command.o                 command.s(19)
_running (rogue.o):
    misc.o                    misc.s(18)
    command.o                 command.s(23)
    move.o                    move.s(20)
_s_guess (rogue.o):
_s_know (rogue.o):
_s_magic (rogue.o):
_s_names (rogue.o):
_secretdoor (misc.o):
_seed (rogue.o):
_show (move.o):
    misc.o                    misc.s(25)
_show_window (curses.o):
    command.o                 command.s(29)
    main.o                    main.s(28)
_slow_invent (rogue.o):
_sprintf (sprintf.o):
    io.o                      io.s(32)
    curses.o                  curses.s(18)
_srand (rand.o):
_status (io.o):
    command.o                 command.s(30)
    new_level.o               new_level.s(32)
_stdscr (rogue.o):
    command.o                 command.s(22)
    passages.o                passages.s(16)
    move.o                    move.s(19)
    rooms.o                   rooms.s(16)
    new_level.o               new_level.s(20)
    main.o                    main.s(24)
_strcpy (strcpy.o):
    io.o                      io.s(34)
    curses.o                  curses.s(19)
_strlen (strlen.o):
    _printf.o                 common/_printf.s(13)
    io.o                      io.s(35)
_strlower (strlower.o):
    _printf.o                 common/_printf.s(13)
_strlwr (strlower.o):
_take (rogue.o):
    command.o                 command.s(18)
_terse (rogue.o):
_things (rogue.o):
_total (rogue.o):
_trap_at (move.o):
_traps (rogue.o):
    move.o                    move.s(13)
    new_level.o               new_level.s(13)
_u_level (command.o):
_ultoa (ltoa.o):
    _printf.o                 common/_printf.s(12)
_vert (rooms.o):
_videomode (videomode.o):
    main.o                    main.s(29)
_vsnprintf (vsnprintf.o):
_vsprintf (vsprintf.o):
    sprintf.o                 common/sprintf.s(8)
    io.o                      io.s(33)
_w_names (rogue.o):
_waddch (curses.o):
    misc.o                    misc.s(23)
    passages.o                passages.s(18)
    move.o                    move.s(24)
    rooms.o                   rooms.s(19)
    new_level.o               new_level.s(28)
_waddstr (curses.o):
    io.o                      io.s(26)
_wait_for (io.o):
_waswizard (rogue.o):
_wclear (curses.o):
    new_level.o               new_level.s(30)
_wclrtoeol (curses.o):
    io.o                      io.s(25)
_whoami (rogue.o):
_winch (curses.o):
    command.o                 command.s(27)
    move.o                    move.s(25)
    new_level.o               new_level.s(29)
_wizard (rogue.o):
_wmove (curses.o):
    misc.o                    misc.s(22)
    command.o                 command.s(26)
    io.o                      io.s(23)
    passages.o                passages.s(17)
    move.o                    move.s(23)
    rooms.o                   rooms.s(18)
    new_level.o               new_level.s(27)
_ws_guess (rogue.o):
_ws_know (rogue.o):
_ws_made (rogue.o):
_ws_magic (rogue.o):
_ws_type (rogue.o):
addeq0sp (addeqsp.o):
addeqysp (addeqsp.o):
    passages.o                passages.s(1442)
addysp (addysp.o):
    sprintf.o                 common/sprintf.s(8)
    leave.o                   runtime/leave.s(14)
    incsp8.o                  runtime/incsp8.s(8)
    incsp7.o                  runtime/incsp7.s(8)
    incsp6.o                  runtime/incsp6.s(8)
    incsp5.o                  runtime/incsp5.s(8)
    incsp4.o                  runtime/incsp4.s(8)
    incsp3.o                  runtime/incsp3.s(8)
    misc.o                    misc.s(908)
    passages.o                passages.s(1442)
    passages.o                passages.s(1442)
    move.o                    move.s(908)
    rooms.o                   rooms.s(800)
addysp1 (addysp.o):
    sub.o                     runtime/sub.s(8)
aslax1 (aslax1.o):
    passages.o                passages.s(1442)
axlong (axlong.o):
    _printf.o                 common/_printf.s(11)
axulong (axlong.o):
    _printf.o                 common/_printf.s(11)
bnega (bneg.o):
    misc.o                    misc.s(908)
    command.o                 command.s(389)
    passages.o                passages.s(1442)
    rooms.o                   rooms.s(800)
bnegax (bneg.o):
    command.o                 command.s(389)
    passages.o                passages.s(1442)
    move.o                    move.s(908)
    rooms.o                   rooms.s(800)
    new_level.o               new_level.s(434)
booleq (makebool.o):
    eq.o                      runtime/eq.s(8)
    misc.o                    misc.s(908)
    command.o                 command.s(389)
    command.o                 command.s(389)
    command.o                 command.s(389)
    io.o                      io.s(363)
    passages.o                passages.s(1442)
    passages.o                passages.s(1442)
    move.o                    move.s(908)
    move.o                    move.s(908)
    move.o                    move.s(908)
    random.o                  random.s(48)
    new_level.o               new_level.s(434)
boolge (makebool.o):
    misc.o                    misc.s(908)
boolgt (makebool.o):
boolle (makebool.o):
    le.o                      runtime/le.s(8)
boollt (makebool.o):
    lt.o                      runtime/lt.s(8)
boolne (makebool.o):
    ne.o                      runtime/ne.s(8)
    misc.o                    misc.s(908)
    command.o                 command.s(389)
    command.o                 command.s(389)
    io.o                      io.s(363)
    passages.o                passages.s(1442)
    move.o                    move.s(908)
    move.o                    move.s(908)
    rooms.o                   rooms.s(800)
booluge (makebool.o):
    uge.o                     runtime/uge.s(8)
boolugt (makebool.o):
boolule (makebool.o):
    ule.o                     runtime/ule.s(8)
boolult (makebool.o):
    ult.o                     runtime/ult.s(8)
    curses.o                  curses.s(592)
    curses.o                  curses.s(592)
    rooms.o                   rooms.s(800)
callmain (callmain.o):
    crt0.o                    apple2/crt0.s(11)
chlinedirect (chline.o):
    cclear.o                  apple2/cclear.s(9)
condes (condes.o):
cputdirect (cputc.o):
    chline.o                  apple2/chline.s(9)
cursor (_cursor.o):
    cgetc.o                   apple2/cgetc.s(10)
decax1 (decax1.o):
    misc.o                    misc.s(908)
    misc.o                    misc.s(908)
    command.o                 command.s(389)
    chase.o                   chase.s(125)
    passages.o                passages.s(1442)
    passages.o                passages.s(1442)
    passages.o                passages.s(1442)
    move.o                    move.s(908)
    move.o                    move.s(908)
    rooms.o                   rooms.s(800)
    rooms.o                   rooms.s(800)
decax2 (decax2.o):
    passages.o                passages.s(1442)
    rooms.o                   rooms.s(800)
    rooms.o                   rooms.s(800)
    rooms.o                   rooms.s(800)
decax4 (decax4.o):
    rooms.o                   rooms.s(800)
decsp1 (decsp1.o):
    command.o                 command.s(389)
    io.o                      io.s(363)
    move.o                    move.s(908)
    new_level.o               new_level.s(434)
    main.o                    main.s(155)
decsp2 (decsp2.o):
    chase.o                   chase.s(125)
    io.o                      io.s(363)
    curses.o                  curses.s(592)
    curses.o                  curses.s(592)
    rooms.o                   rooms.s(800)
decsp4 (decsp4.o):
    sprintf.o                 common/sprintf.s(8)
    lpush.o                   runtime/lpush.s(12)
    io.o                      io.s(363)
    move.o                    move.s(908)
    move.o                    move.s(908)
    rooms.o                   rooms.s(800)
decsp5 (decsp5.o):
    new_level.o               new_level.s(434)
decsp6 (decsp6.o):
    _printf.o                 common/_printf.s(11)
    misc.o                    misc.s(908)
    misc.o                    misc.s(908)
done (crt0.o):
donelib (condes.o):
    crt0.o                    apple2/crt0.s(10)
enter (enter.o):
    io.o                      io.s(363)
gotoxy (gotoxy.o):
    cputs.o                   conio/cputs.s(9)
    cputc.o                   apple2/cputc.s(13)
    chline.o                  apple2/chline.s(9)
    cclear.o                  apple2/cclear.s(9)
incax2 (incax2.o):
    curses.o                  curses.s(592)
    curses.o                  curses.s(592)
    curses.o                  curses.s(592)
    curses.o                  curses.s(592)
    curses.o                  curses.s(592)
    curses.o                  curses.s(592)
    rooms.o                   rooms.s(800)
incax3 (incax3.o):
    passages.o                passages.s(1442)
incax4 (incaxy.o):
    rooms.o                   rooms.s(800)
incax5 (incax5.o):
    move.o                    move.s(908)
incaxy (incaxy.o):
    incax5.o                  runtime/incax5.s(8)
    incax3.o                  runtime/incax3.s(8)
    misc.o                    misc.s(908)
    chase.o                   chase.s(125)
    passages.o                passages.s(1442)
    passages.o                passages.s(1442)
    rooms.o                   rooms.s(800)
incsp1 (incsp1.o):
    rooms.o                   rooms.s(800)
    new_level.o               new_level.s(434)
    main.o                    main.s(155)
incsp2 (incsp2.o):
    vsnprintf.o               common/vsnprintf.s(9)
    staxspi.o                 runtime/staxspi.s(9)
    staspidx.o                runtime/staspidx.s(8)
    popptr1.o                 runtime/popptr1.s(8)
    io.o                      io.s(363)
    curses.o                  curses.s(592)
    random.o                  random.s(48)
incsp3 (incsp3.o):
    command.o                 command.s(389)
    move.o                    move.s(908)
    curses.o                  curses.s(592)
    rooms.o                   rooms.s(800)
incsp4 (incsp4.o):
    chase.o                   chase.s(125)
    io.o                      io.s(363)
    io.o                      io.s(363)
    passages.o                passages.s(1442)
    curses.o                  curses.s(592)
    curses.o                  curses.s(592)
    curses.o                  curses.s(592)
    curses.o                  curses.s(592)
    curses.o                  curses.s(592)
    curses.o                  curses.s(592)
    curses.o                  curses.s(592)
    rooms.o                   rooms.s(800)
incsp5 (incsp5.o):
    curses.o                  curses.s(592)
    curses.o                  curses.s(592)
    curses.o                  curses.s(592)
    new_level.o               new_level.s(434)
incsp6 (incsp6.o):
    vsnprintf.o               common/vsnprintf.s(9)
    move.o                    move.s(908)
    rooms.o                   rooms.s(800)
incsp7 (incsp7.o):
    move.o                    move.s(908)
incsp8 (incsp8.o):
    misc.o                    misc.s(908)
initconio (cputc.o):
initlib (condes.o):
    crt0.o                    apple2/crt0.s(10)
ldauidx (ldaui.o):
    misc.o                    misc.s(908)
    misc.o                    misc.s(908)
    chase.o                   chase.s(125)
    io.o                      io.s(363)
    passages.o                passages.s(1442)
    passages.o                passages.s(1442)
    passages.o                passages.s(1442)
    move.o                    move.s(908)
    move.o                    move.s(908)
    move.o                    move.s(908)
    curses.o                  curses.s(592)
    curses.o                  curses.s(592)
    curses.o                  curses.s(592)
    curses.o                  curses.s(592)
    curses.o                  curses.s(592)
    rooms.o                   rooms.s(800)
    rooms.o                   rooms.s(800)
    rooms.o                   rooms.s(800)
    rooms.o                   rooms.s(800)
ldax0sp (ldaxsp.o):
ldaxi (ldaxi.o):
ldaxidx (ldaxi.o):
    misc.o                    misc.s(908)
    io.o                      io.s(363)
    io.o                      io.s(363)
    passages.o                passages.s(1442)
    passages.o                passages.s(1442)
    move.o                    move.s(908)
    move.o                    move.s(908)
    rooms.o                   rooms.s(800)
    new_level.o               new_level.s(434)
ldaxysp (ldaxsp.o):
    vsnprintf.o               common/vsnprintf.s(9)
    misc.o                    misc.s(908)
    misc.o                    misc.s(908)
    command.o                 command.s(389)
    chase.o                   chase.s(125)
    io.o                      io.s(363)
    io.o                      io.s(363)
    io.o                      io.s(363)
    passages.o                passages.s(1442)
    passages.o                passages.s(1442)
    passages.o                passages.s(1442)
    move.o                    move.s(908)
    move.o                    move.s(908)
    move.o                    move.s(908)
    curses.o                  curses.s(592)
    curses.o                  curses.s(592)
    curses.o                  curses.s(592)
    curses.o                  curses.s(592)
    curses.o                  curses.s(592)
    curses.o                  curses.s(592)
    curses.o                  curses.s(592)
    curses.o                  curses.s(592)
    curses.o                  curses.s(592)
    curses.o                  curses.s(592)
    curses.o                  curses.s(592)
    curses.o                  curses.s(592)
    random.o                  random.s(48)
    rooms.o                   rooms.s(800)
    rooms.o                   rooms.s(800)
    rooms.o                   rooms.s(800)
    new_level.o               new_level.s(434)
leaa0sp (leaaxsp.o):
    passages.o                passages.s(1442)
    new_level.o               new_level.s(434)
leaaxsp (leaaxsp.o):
    io.o                      io.s(363)
leave (leave.o):
leave0 (leave.o):
leave00 (leave.o):
leavey (leave.o):
    io.o                      io.s(363)
leavey0 (leave.o):
leavey00 (leave.o):
memcpy_getparams (memcpy.o):
memcpy_upwards (memcpy.o):
mul8x16 (mul8.o):
    mul.o                     runtime/mul.s(8)
mul8x16a (mul8.o):
    mul.o                     runtime/mul.s(8)
mulax10 (mulax10.o):
    rooms.o                   rooms.s(800)
mulax5 (mulax5.o):
    move.o                    move.s(908)
    new_level.o               new_level.s(434)
negax (negabs.o):
    shelp.o                   runtime/shelp.s(11)
    mod.o                     runtime/mod.s(11)
    div.o                     runtime/div.s(11)
negeax (lneg.o):
    ltoa.o                    common/ltoa.s(9)
newline (cputc.o):
popa (popa.o):
    gotoxy.o                  apple2/gotoxy.s(9)
popax (incsp2.o):
    memcpy.o                  common/memcpy.s(14)
    ltoa.o                    common/ltoa.s(9)
    _printf.o                 common/_printf.s(11)
    vsnprintf.o               common/vsnprintf.s(9)
    strcpy.o                  common/strcpy.s(8)
    shelp.o                   runtime/shelp.s(11)
popptr1 (popptr1.o):
    memcpy.o                  common/memcpy.s(14)
    ltoa.o                    common/ltoa.s(9)
    udiv.o                    runtime/udiv.s(9)
    mul8.o                    runtime/mul8.s(9)
    mul.o                     runtime/mul.s(9)
popsargsudiv16 (shelp.o):
    mod.o                     runtime/mod.s(11)
    div.o                     runtime/div.s(11)
ptr1 (zeropage.o):
    strlower.o                common/strlower.s(14)
    memcpy.o                  common/memcpy.s(15)
    ltoa.o                    common/ltoa.s(11)
    _printf.o                 /private/tmp/cc65-20190531-26117-1un8vyh/cc65-2.18/asminc/zeropage.inc(12)
    vsnprintf.o               common/vsnprintf.s(11)
    zerobss.o                 common/zerobss.s(9)
    udiv.o                    runtime/udiv.s(10)
    strcpy.o                  common/strcpy.s(9)
    staxspi.o                 runtime/staxspi.s(10)
    staspidx.o                runtime/staspidx.s(9)
    sprintf.o                 common/sprintf.s(9)
    shelp.o                   runtime/shelp.s(12)
    popptr1.o                 runtime/popptr1.s(9)
    mulax5.o                  runtime/mulax5.s(9)
    mulax10.o                 runtime/mulax10.s(9)
    mul8.o                    runtime/mul8.s(10)
    mul.o                     runtime/mul.s(10)
    ldaxi.o                   runtime/ldaxi.s(8)
    ldaui.o                   runtime/ldaui.s(8)
    div.o                     runtime/div.s(12)
    cputs.o                   conio/cputs.s(10)
    rooms.o                   rooms.s(11)
ptr2 (zeropage.o):
    strlower.o                common/strlower.s(14)
    memcpy.o                  common/memcpy.s(15)
    ltoa.o                    common/ltoa.s(11)
    _printf.o                 /private/tmp/cc65-20190531-26117-1un8vyh/cc65-2.18/asminc/zeropage.inc(12)
    strlen.o                  common/strlen.s(12)
    strcpy.o                  common/strcpy.s(9)
ptr3 (zeropage.o):
    memcpy.o                  common/memcpy.s(15)
    ltoa.o                    common/ltoa.s(11)
ptr4 (zeropage.o):
    udiv.o                    runtime/udiv.s(10)
    shelp.o                   runtime/shelp.s(12)
    mul8.o                    runtime/mul8.s(10)
    mul.o                     runtime/mul.s(10)
push0 (pushax.o):
push0ax (lpush.o):
push1 (push1.o):
    _printf.o                 common/_printf.s(11)
pusha (pusha.o):
    misc.o                    misc.s(908)
    misc.o                    misc.s(908)
    command.o                 command.s(389)
    command.o                 command.s(389)
    command.o                 command.s(389)
    io.o                      io.s(363)
    io.o                      io.s(363)
    io.o                      io.s(363)
    passages.o                passages.s(1442)
    passages.o                passages.s(1442)
    move.o                    move.s(908)
    move.o                    move.s(908)
    move.o                    move.s(908)
    move.o                    move.s(908)
    curses.o                  curses.s(592)
    curses.o                  curses.s(592)
    curses.o                  curses.s(592)
    curses.o                  curses.s(592)
    curses.o                  curses.s(592)
    curses.o                  curses.s(592)
    curses.o                  curses.s(592)
    curses.o                  curses.s(592)
    curses.o                  curses.s(592)
    rooms.o                   rooms.s(800)
    rooms.o                   rooms.s(800)
    rooms.o                   rooms.s(800)
    new_level.o               new_level.s(434)
pusha0 (pushax.o):
    push1.o                   runtime/push1.s(8)
pusha0sp (pusha.o):
pushax (pushax.o):
    _printf.o                 common/_printf.s(11)
    callmain.o                runtime/callmain.s(11)
    misc.o                    misc.s(908)
    misc.o                    misc.s(908)
    command.o                 command.s(389)
    command.o                 command.s(389)
    command.o                 command.s(389)
    chase.o                   chase.s(125)
    io.o                      io.s(363)
    io.o                      io.s(363)
    io.o                      io.s(363)
    io.o                      io.s(363)
    io.o                      io.s(363)
    passages.o                passages.s(1442)
    passages.o                passages.s(1442)
    passages.o                passages.s(1442)
    move.o                    move.s(908)
    move.o                    move.s(908)
    move.o                    move.s(908)
    move.o                    move.s(908)
    curses.o                  curses.s(592)
    curses.o                  curses.s(592)
    curses.o                  curses.s(592)
    curses.o                  curses.s(592)
    curses.o                  curses.s(592)
    curses.o                  curses.s(592)
    curses.o                  curses.s(592)
    curses.o                  curses.s(592)
    curses.o                  curses.s(592)
    curses.o                  curses.s(592)
    curses.o                  curses.s(592)
    curses.o                  curses.s(592)
    random.o                  random.s(48)
    rooms.o                   rooms.s(800)
    rooms.o                   rooms.s(800)
    rooms.o                   rooms.s(800)
    rooms.o                   rooms.s(800)
    rooms.o                   rooms.s(800)
    new_level.o               new_level.s(434)
    new_level.o               new_level.s(434)
pushaysp (pusha.o):
pusheax (lpush.o):
    _printf.o                 common/_printf.s(11)
    io.o                      io.s(363)
pushl0 (lpush.o):
pushw0sp (pushwsp.o):
    vsprintf.o                common/vsprintf.s(8)
pushwysp (pushwsp.o):
putchar (cputc.o):
putchardirect (cputc.o):
    cgetc.o                   apple2/cgetc.s(10)
regbank (zeropage.o):
    _printf.o                 /private/tmp/cc65-20190531-26117-1un8vyh/cc65-2.18/asminc/zeropage.inc(14)
regsave (zeropage.o):
    misc.o                    misc.s(10)
    command.o                 command.s(10)
    chase.o                   chase.s(10)
    passages.o                passages.s(10)
    move.o                    move.s(10)
    rooms.o                   rooms.s(10)
return (crt0.o):
return0 (return0.o):
    ult.o                     runtime/ult.s(8)
return1 (return1.o):
    misc.o                    misc.s(908)
shlax1 (aslax1.o):
shrax2 (shrax2.o):
    new_level.o               new_level.s(434)
sp (zeropage.o):
    memcpy.o                  common/memcpy.s(15)
    _printf.o                 /private/tmp/cc65-20190531-26117-1un8vyh/cc65-2.18/asminc/zeropage.inc(11)
    vsnprintf.o               common/vsnprintf.s(11)
    pushwsp.o                 runtime/pushwsp.s(8)
    subysp.o                  runtime/subysp.s(9)
    sub.o                     runtime/sub.s(9)
    staxspi.o                 runtime/staxspi.s(10)
    staxsp.o                  runtime/staxsp.s(8)
    staspidx.o                runtime/staspidx.s(9)
    sprintf.o                 common/sprintf.s(9)
    pushax.o                  runtime/pushax.s(8)
    pusha.o                   runtime/pusha.s(8)
    popptr1.o                 runtime/popptr1.s(9)
    popa.o                    runtime/popa.s(8)
    lpush.o                   runtime/lpush.s(13)
    leave.o                   runtime/leave.s(15)
    leaaxsp.o                 runtime/leaaxsp.s(8)
    ldaxsp.o                  runtime/ldaxsp.s(8)
    incsp2.o                  runtime/incsp2.s(8)
    incsp1.o                  runtime/incsp1.s(8)
    icmp.o                    runtime/icmp.s(9)
    enter.o                   runtime/enter.s(8)
    decsp6.o                  runtime/decsp6.s(8)
    decsp5.o                  runtime/decsp5.s(8)
    decsp4.o                  runtime/decsp4.s(8)
    decsp2.o                  runtime/decsp2.s(8)
    decsp1.o                  runtime/decsp1.s(8)
    crt0.o                    /private/tmp/cc65-20190531-26117-1un8vyh/cc65-2.18/asminc/zeropage.inc(11)
    addysp.o                  runtime/addysp.s(8)
    addeqsp.o                 runtime/addeqsp.s(8)
    add.o                     runtime/add.s(12)
    misc.o                    misc.s(10)
    command.o                 command.s(10)
    io.o                      io.s(10)
    passages.o                passages.s(10)
    move.o                    move.s(10)
    curses.o                  curses.s(10)
    rooms.o                   rooms.s(10)
    new_level.o               new_level.s(10)
    main.o                    main.s(10)
sreg (zeropage.o):
    lneg.o                    runtime/lneg.s(11)
    ltoa.o                    common/ltoa.s(11)
    axlong.o                  runtime/axlong.s(9)
    _printf.o                 /private/tmp/cc65-20190531-26117-1un8vyh/cc65-2.18/asminc/zeropage.inc(11)
    udiv.o                    runtime/udiv.s(10)
    mod.o                     runtime/mod.s(12)
    lpush.o                   runtime/lpush.s(13)
    icmp.o                    runtime/icmp.s(9)
    io.o                      io.s(10)
staspidx (staspidx.o):
    passages.o                passages.s(1442)
    curses.o                  curses.s(592)
    curses.o                  curses.s(592)
    curses.o                  curses.s(592)
    curses.o                  curses.s(592)
    rooms.o                   rooms.s(800)
    rooms.o                   rooms.s(800)
    new_level.o               new_level.s(434)
stax0sp (staxsp.o):
staxspidx (staxspi.o):
    passages.o                passages.s(1442)
    rooms.o                   rooms.s(800)
    new_level.o               new_level.s(434)
staxysp (staxsp.o):
    vsprintf.o                common/vsprintf.s(8)
    misc.o                    misc.s(908)
    misc.o                    misc.s(908)
    command.o                 command.s(389)
    chase.o                   chase.s(125)
    io.o                      io.s(363)
    io.o                      io.s(363)
    passages.o                passages.s(1442)
    passages.o                passages.s(1442)
    move.o                    move.s(908)
    move.o                    move.s(908)
    move.o                    move.s(908)
    random.o                  random.s(48)
    rooms.o                   rooms.s(800)
    rooms.o                   rooms.s(800)
subysp (subysp.o):
    misc.o                    misc.s(908)
    passages.o                passages.s(1442)
    passages.o                passages.s(1442)
    move.o                    move.s(908)
    rooms.o                   rooms.s(800)
tmp1 (zeropage.o):
    ltoa.o                    common/ltoa.s(11)
    _printf.o                 /private/tmp/cc65-20190531-26117-1un8vyh/cc65-2.18/asminc/zeropage.inc(13)
    staxspi.o                 runtime/staxspi.s(10)
    staspidx.o                runtime/staspidx.s(9)
    shrax2.o                  runtime/shrax2.s(8)
    shelp.o                   runtime/shelp.s(12)
    mul.o                     runtime/mul.s(10)
    mod.o                     runtime/mod.s(12)
    incaxy.o                  runtime/incaxy.s(8)
    div.o                     runtime/div.s(12)
    cputs.o                   conio/cputs.s(10)
    chline.o                  /private/tmp/cc65-20190531-26117-1un8vyh/cc65-2.18/asminc/zeropage.inc(13)
    aslax1.o                  runtime/aslax1.s(8)
    misc.o                    misc.s(11)
    command.o                 command.s(11)
    passages.o                passages.s(11)
    move.o                    move.s(11)
    rooms.o                   rooms.s(11)
    new_level.o               new_level.s(11)
tmp2 (zeropage.o):
    shelp.o                   runtime/shelp.s(12)
    div.o                     runtime/div.s(12)
    chline.o                  /private/tmp/cc65-20190531-26117-1un8vyh/cc65-2.18/asminc/zeropage.inc(13)
tmp3 (zeropage.o):
tmp4 (zeropage.o):
tosadda0 (add.o):
tosaddax (add.o):
    misc.o                    misc.s(908)
    misc.o                    misc.s(908)
    chase.o                   chase.s(125)
    passages.o                passages.s(1442)
    passages.o                passages.s(1442)
    move.o                    move.s(908)
    move.o                    move.s(908)
    curses.o                  curses.s(592)
    curses.o                  curses.s(592)
    curses.o                  curses.s(592)
    curses.o                  curses.s(592)
    curses.o                  curses.s(592)
    rooms.o                   rooms.s(800)
    rooms.o                   rooms.s(800)
    rooms.o                   rooms.s(800)
tosdiva0 (div.o):
tosdivax (div.o):
    passages.o                passages.s(1442)
    rooms.o                   rooms.s(800)
toseq00 (eq.o):
toseqa0 (eq.o):
toseqax (eq.o):
    misc.o                    misc.s(908)
    misc.o                    misc.s(908)
    passages.o                passages.s(1442)
    move.o                    move.s(908)
    move.o                    move.s(908)
    move.o                    move.s(908)
tosicmp (icmp.o):
    ult.o                     runtime/ult.s(8)
    ule.o                     runtime/ule.s(8)
    uge.o                     runtime/uge.s(8)
    ne.o                      runtime/ne.s(8)
    lt.o                      runtime/lt.s(8)
    le.o                      runtime/le.s(8)
    eq.o                      runtime/eq.s(8)
tosicmp0 (icmp.o):
tosle00 (le.o):
toslea0 (le.o):
tosleax (le.o):
    misc.o                    misc.s(908)
toslt00 (lt.o):
toslta0 (lt.o):
tosltax (lt.o):
    passages.o                passages.s(1442)
    rooms.o                   rooms.s(800)
tosmoda0 (mod.o):
tosmodax (mod.o):
    random.o                  random.s(48)
    rooms.o                   rooms.s(800)
tosmula0 (mul8.o):
tosmulax (mul.o):
    passages.o                passages.s(1442)
    passages.o                passages.s(1442)
    curses.o                  curses.s(592)
    curses.o                  curses.s(592)
    curses.o                  curses.s(592)
    curses.o                  curses.s(592)
    curses.o                  curses.s(592)
    rooms.o                   rooms.s(800)
    new_level.o               new_level.s(434)
    new_level.o               new_level.s(434)
tosne00 (ne.o):
tosnea0 (ne.o):
tosneax (ne.o):
    misc.o                    misc.s(908)
    io.o                      io.s(363)
tossuba0 (sub.o):
tossubax (sub.o):
    misc.o                    misc.s(908)
    passages.o                passages.s(1442)
    passages.o                passages.s(1442)
    rooms.o                   rooms.s(800)
tosudiva0 (udiv.o):
tosudivax (udiv.o):
tosuge00 (uge.o):
tosugea0 (uge.o):
tosugeax (uge.o):
    rooms.o                   rooms.s(800)
tosule00 (ule.o):
tosulea0 (ule.o):
tosuleax (ule.o):
    misc.o                    misc.s(908)
    misc.o                    misc.s(908)
    chase.o                   chase.s(125)
tosult00 (ult.o):
tosulta0 (ult.o):
tosultax (ult.o):
    chase.o                   chase.s(125)
    passages.o                passages.s(1442)
    passages.o                passages.s(1442)
    passages.o                passages.s(1442)
    move.o                    move.s(908)
    move.o                    move.s(908)
    rooms.o                   rooms.s(800)
    rooms.o                   rooms.s(800)
    new_level.o               new_level.s(434)
tosumula0 (mul8.o):
tosumulax (mul.o):
    rooms.o                   rooms.s(800)
udiv16 (udiv.o):
    shelp.o                   runtime/shelp.s(11)
vsnprintf (vsnprintf.o):
    vsprintf.o                common/vsprintf.s(9)
zerobss (zerobss.o):
    crt0.o                    apple2/crt0.s(11)

